   1               		.file	"mBoard.c"
   2               	__SREG__ = 0x3f
   3               	__SP_H__ = 0x3e
   4               	__SP_L__ = 0x3d
   5               	__CCP__ = 0x34
   6               	__tmp_reg__ = 0
   7               	__zero_reg__ = 1
   8               		.text
   9               	.global	sleep
  11               	sleep:
  12               	/* prologue: function */
  13               	/* frame size = 0 */
  14               	/* stack size = 0 */
  15               	.L__stack_usage = 0
  16 0000 00C0      		rjmp .L2
  17               	.L3:
  18 0002 EFE9      		 ldi r30,lo8(3999)
  19 0004 FFE0      	    ldi r31,hi8(3999)
  20 0006 3197      	    1:sbiw r30,1
  21 0008 01F4      	    brne 1b
  22 000a 00C0      		rjmp .
  23 000c 0000      		nop
  24 000e 6150      		subi r22,lo8(-(-1))
  25 0010 7040      		sbci r23,hi8(-(-1))
  26 0012 8040      		sbci r24,hlo8(-(-1))
  27 0014 9040      		sbci r25,hhi8(-(-1))
  28               	.L2:
  29 0016 6115      		cp r22,__zero_reg__
  30 0018 7105      		cpc r23,__zero_reg__
  31 001a 8105      		cpc r24,__zero_reg__
  32 001c 9105      		cpc r25,__zero_reg__
  33 001e 01F4      		brne .L3
  34               	/* epilogue start */
  35 0020 0895      		ret
  37               	.global	initPorts
  39               	initPorts:
  40               	/* prologue: function */
  41               	/* frame size = 0 */
  42               	/* stack size = 0 */
  43               	.L__stack_usage = 0
  44 0022 389A      		sbi 39-32,0
  45 0024 399A      		sbi 39-32,1
  46 0026 3A9A      		sbi 39-32,2
  47 0028 3B9A      		sbi 39-32,3
  48 002a 3F9A      		sbi 39-32,7
  49 002c 2098      		cbi 36-32,0
  50 002e 289A      		sbi 37-32,0
  51 0030 87E8      		ldi r24,lo8(-121)
  52 0032 8093 7A00 		sts 122,r24
  53               	/* epilogue start */
  54 0036 0895      		ret
  56               	.global	initVoltageMultiplikator
  58               	initVoltageMultiplikator:
  59               	/* prologue: function */
  60               	/* frame size = 0 */
  61               	/* stack size = 0 */
  62               	.L__stack_usage = 0
  63 0038 1092 0000 		sts measuringVoltageFaktor,__zero_reg__
  64 003c 85E0      		ldi r24,lo8(5)
  65 003e 8093 0000 		sts measuringVoltageFaktor+1,r24
  66 0042 1092 0000 		sts measuringVoltageFaktor+2,__zero_reg__
  67 0046 1092 0000 		sts measuringVoltageFaktor+3,__zero_reg__
  68 004a 1092 0000 		sts measuringVoltageFaktor+4,__zero_reg__
  69 004e 1092 0000 		sts measuringVoltageFaktor+5,__zero_reg__
  70 0052 1092 0000 		sts measuringVoltageFaktor+6,__zero_reg__
  71 0056 1092 0000 		sts measuringVoltageFaktor+7,__zero_reg__
  72 005a 8FE6      		ldi r24,lo8(111)
  73 005c 8093 0000 		sts portToRelais,r24
  74 0060 8093 0000 		sts portToRelais+1,r24
  75 0064 8093 0000 		sts portToRelais+2,r24
  76 0068 8093 0000 		sts portToRelais+3,r24
  77 006c 8093 0000 		sts portToRelais+4,r24
  78 0070 8093 0000 		sts portToRelais+5,r24
  79 0074 8093 0000 		sts portToRelais+6,r24
  80 0078 8093 0000 		sts portToRelais+7,r24
  81 007c 84EF      		ldi r24,lo8(500)
  82 007e 91E0      		ldi r25,hi8(500)
  83 0080 A0E0      		ldi r26,hlo8(500)
  84 0082 B0E0      		ldi r27,hhi8(500)
  85 0084 8093 0000 		sts reactionValues,r24
  86 0088 9093 0000 		sts reactionValues+1,r25
  87 008c A093 0000 		sts reactionValues+2,r26
  88 0090 B093 0000 		sts reactionValues+3,r27
  89 0094 8093 0000 		sts reactionValues+4,r24
  90 0098 9093 0000 		sts reactionValues+4+1,r25
  91 009c A093 0000 		sts reactionValues+4+2,r26
  92 00a0 B093 0000 		sts reactionValues+4+3,r27
  93 00a4 8093 0000 		sts reactionValues+8,r24
  94 00a8 9093 0000 		sts reactionValues+8+1,r25
  95 00ac A093 0000 		sts reactionValues+8+2,r26
  96 00b0 B093 0000 		sts reactionValues+8+3,r27
  97 00b4 8093 0000 		sts reactionValues+12,r24
  98 00b8 9093 0000 		sts reactionValues+12+1,r25
  99 00bc A093 0000 		sts reactionValues+12+2,r26
 100 00c0 B093 0000 		sts reactionValues+12+3,r27
 101 00c4 8093 0000 		sts reactionValues+16,r24
 102 00c8 9093 0000 		sts reactionValues+16+1,r25
 103 00cc A093 0000 		sts reactionValues+16+2,r26
 104 00d0 B093 0000 		sts reactionValues+16+3,r27
 105 00d4 8093 0000 		sts reactionValues+20,r24
 106 00d8 9093 0000 		sts reactionValues+20+1,r25
 107 00dc A093 0000 		sts reactionValues+20+2,r26
 108 00e0 B093 0000 		sts reactionValues+20+3,r27
 109 00e4 8093 0000 		sts reactionValues+24,r24
 110 00e8 9093 0000 		sts reactionValues+24+1,r25
 111 00ec A093 0000 		sts reactionValues+24+2,r26
 112 00f0 B093 0000 		sts reactionValues+24+3,r27
 113 00f4 8093 0000 		sts reactionValues+28,r24
 114 00f8 9093 0000 		sts reactionValues+28+1,r25
 115 00fc A093 0000 		sts reactionValues+28+2,r26
 116 0100 B093 0000 		sts reactionValues+28+3,r27
 117 0104 82E0      		ldi r24,lo8(2)
 118 0106 8093 0000 		sts reactionTriggerMode,r24
 119 010a 8093 0000 		sts reactionTriggerMode+1,r24
 120 010e 8093 0000 		sts reactionTriggerMode+2,r24
 121 0112 8093 0000 		sts reactionTriggerMode+3,r24
 122 0116 8093 0000 		sts reactionTriggerMode+4,r24
 123 011a 8093 0000 		sts reactionTriggerMode+5,r24
 124 011e 8093 0000 		sts reactionTriggerMode+6,r24
 125 0122 8093 0000 		sts reactionTriggerMode+7,r24
 126 0126 80E0      		ldi r24,lo8(0x3f800000)
 127 0128 90E0      		ldi r25,hi8(0x3f800000)
 128 012a A0E8      		ldi r26,hlo8(0x3f800000)
 129 012c BFE3      		ldi r27,hhi8(0x3f800000)
 130 012e 8093 0000 		sts intervalValues+4,r24
 131 0132 9093 0000 		sts intervalValues+4+1,r25
 132 0136 A093 0000 		sts intervalValues+4+2,r26
 133 013a B093 0000 		sts intervalValues+4+3,r27
 134 013e 80E0      		ldi r24,lo8(0x3f000000)
 135 0140 90E0      		ldi r25,hi8(0x3f000000)
 136 0142 A0E0      		ldi r26,hlo8(0x3f000000)
 137 0144 BFE3      		ldi r27,hhi8(0x3f000000)
 138 0146 8093 0000 		sts intervalValues+12,r24
 139 014a 9093 0000 		sts intervalValues+12+1,r25
 140 014e A093 0000 		sts intervalValues+12+2,r26
 141 0152 B093 0000 		sts intervalValues+12+3,r27
 142 0156 80E0      		ldi r24,lo8(0x40e00000)
 143 0158 90E0      		ldi r25,hi8(0x40e00000)
 144 015a A0EE      		ldi r26,hlo8(0x40e00000)
 145 015c B0E4      		ldi r27,hhi8(0x40e00000)
 146 015e 8093 0000 		sts intervalValues+8,r24
 147 0162 9093 0000 		sts intervalValues+8+1,r25
 148 0166 A093 0000 		sts intervalValues+8+2,r26
 149 016a B093 0000 		sts intervalValues+8+3,r27
 150 016e 80E0      		ldi r24,lo8(0x40a00000)
 151 0170 90E0      		ldi r25,hi8(0x40a00000)
 152 0172 A0EA      		ldi r26,hlo8(0x40a00000)
 153 0174 B0E4      		ldi r27,hhi8(0x40a00000)
 154 0176 8093 0000 		sts intervalValues+20,r24
 155 017a 9093 0000 		sts intervalValues+20+1,r25
 156 017e A093 0000 		sts intervalValues+20+2,r26
 157 0182 B093 0000 		sts intervalValues+20+3,r27
 158               	/* epilogue start */
 159 0186 0895      		ret
 161               	.global	getTemp
 163               	getTemp:
 164               	/* prologue: function */
 165               	/* frame size = 0 */
 166               	/* stack size = 0 */
 167               	.L__stack_usage = 0
 168 0188 6091 0000 		lds r22,measurement
 169 018c 7091 0000 		lds r23,measurement+1
 170 0190 8091 0000 		lds r24,measurement+2
 171 0194 9091 0000 		lds r25,measurement+3
 172 0198 20E0      		ldi r18,lo8(0x40a00000)
 173 019a 30E0      		ldi r19,hi8(0x40a00000)
 174 019c 40EA      		ldi r20,hlo8(0x40a00000)
 175 019e 50E4      		ldi r21,hhi8(0x40a00000)
 176 01a0 0E94 0000 		call __subsf3
 177 01a4 9058      		subi r25,0x80
 178 01a6 2DEC      		ldi r18,lo8(0x3d4ccccd)
 179 01a8 3CEC      		ldi r19,hi8(0x3d4ccccd)
 180 01aa 4CE4      		ldi r20,hlo8(0x3d4ccccd)
 181 01ac 5DE3      		ldi r21,hhi8(0x3d4ccccd)
 182 01ae 0E94 0000 		call __divsf3
 183               	/* epilogue start */
 184 01b2 0895      		ret
 186               	.global	getLightIntensity
 188               	getLightIntensity:
 189               	/* prologue: function */
 190               	/* frame size = 0 */
 191               	/* stack size = 0 */
 192               	.L__stack_usage = 0
 193 01b4 6091 0000 		lds r22,measurement
 194 01b8 7091 0000 		lds r23,measurement+1
 195 01bc 8091 0000 		lds r24,measurement+2
 196 01c0 9091 0000 		lds r25,measurement+3
 197 01c4 2AE9      		ldi r18,lo8(0x4089999a)
 198 01c6 39E9      		ldi r19,hi8(0x4089999a)
 199 01c8 49E8      		ldi r20,hlo8(0x4089999a)
 200 01ca 50E4      		ldi r21,hhi8(0x4089999a)
 201 01cc 0E94 0000 		call __divsf3
 202 01d0 20E0      		ldi r18,lo8(0x42c80000)
 203 01d2 30E0      		ldi r19,hi8(0x42c80000)
 204 01d4 48EC      		ldi r20,hlo8(0x42c80000)
 205 01d6 52E4      		ldi r21,hhi8(0x42c80000)
 206 01d8 0E94 0000 		call __mulsf3
 207 01dc 562F      		mov r21,r22
 208 01de 472F      		mov r20,r23
 209 01e0 382F      		mov r19,r24
 210 01e2 292F      		mov r18,r25
 211 01e4 60E0      		ldi r22,lo8(0x42c80000)
 212 01e6 70E0      		ldi r23,hi8(0x42c80000)
 213 01e8 88EC      		ldi r24,hlo8(0x42c80000)
 214 01ea 92E4      		ldi r25,hhi8(0x42c80000)
 215 01ec DA01      		movw r26,r20
 216 01ee F901      		movw r30,r18
 217 01f0 2B2F      		mov r18,r27
 218 01f2 3A2F      		mov r19,r26
 219 01f4 4F2F      		mov r20,r31
 220 01f6 5E2F      		mov r21,r30
 221 01f8 0E94 0000 		call __subsf3
 222 01fc 0E94 0000 		call __fixsfsi
 223 0200 77FF      		sbrs r23,7
 224 0202 00C0      		rjmp .L8
 225 0204 7095      		com r23
 226 0206 6195      		neg r22
 227 0208 7F4F      		sbci r23,lo8(-1)
 228               	.L8:
 229 020a 8827      		clr r24
 230 020c 77FD      		sbrc r23,7
 231 020e 8095      		com r24
 232 0210 982F      		mov r25,r24
 233 0212 0E94 0000 		call __floatsisf
 234               	/* epilogue start */
 235 0216 0895      		ret
 237               	.global	getNoise
 239               	getNoise:
 240               	/* prologue: function */
 241               	/* frame size = 0 */
 242               	/* stack size = 0 */
 243               	.L__stack_usage = 0
 244 0218 6091 0000 		lds r22,measurement
 245 021c 7091 0000 		lds r23,measurement+1
 246 0220 8091 0000 		lds r24,measurement+2
 247 0224 9091 0000 		lds r25,measurement+3
 248 0228 20E0      		ldi r18,lo8(0x40a00000)
 249 022a 30E0      		ldi r19,hi8(0x40a00000)
 250 022c 40EA      		ldi r20,hlo8(0x40a00000)
 251 022e 50E4      		ldi r21,hhi8(0x40a00000)
 252 0230 0E94 0000 		call __divsf3
 253 0234 20E0      		ldi r18,lo8(0x42c80000)
 254 0236 30E0      		ldi r19,hi8(0x42c80000)
 255 0238 48EC      		ldi r20,hlo8(0x42c80000)
 256 023a 52E4      		ldi r21,hhi8(0x42c80000)
 257 023c 0E94 0000 		call __mulsf3
 258               	/* epilogue start */
 259 0240 0895      		ret
 261               	.global	getDistance
 263               	getDistance:
 264               	/* prologue: function */
 265               	/* frame size = 0 */
 266               	/* stack size = 0 */
 267               	.L__stack_usage = 0
 268 0242 6091 0000 		lds r22,measurement
 269 0246 7091 0000 		lds r23,measurement+1
 270 024a 8091 0000 		lds r24,measurement+2
 271 024e 9091 0000 		lds r25,measurement+3
 272 0252 2091 0000 		lds r18,distanceScale
 273 0256 3091 0000 		lds r19,distanceScale+1
 274 025a 4091 0000 		lds r20,distanceScale+2
 275 025e 5091 0000 		lds r21,distanceScale+3
 276 0262 0E94 0000 		call __mulsf3
 277               	/* epilogue start */
 278 0266 0895      		ret
 280               	.global	startMeasure
 282               	startMeasure:
 283               	/* prologue: function */
 284               	/* frame size = 0 */
 285               	/* stack size = 0 */
 286               	.L__stack_usage = 0
 287 0268 8093 7C00 		sts 124,r24
 288 026c 8091 7C00 		lds r24,124
 289 0270 8064      		ori r24,lo8(64)
 290 0272 8093 7C00 		sts 124,r24
 291 0276 8091 7A00 		lds r24,122
 292 027a 8064      		ori r24,lo8(64)
 293 027c 8093 7A00 		sts 122,r24
 294               	.L12:
 295 0280 8091 7A00 		lds r24,122
 296 0284 86FD      		sbrc r24,6
 297 0286 00C0      		rjmp .L12
 298 0288 8091 7800 		lds r24,120
 299 028c 9091 7900 		lds r25,120+1
 300 0290 8091 7A00 		lds r24,122
 301 0294 8064      		ori r24,lo8(64)
 302 0296 8093 7A00 		sts 122,r24
 303               	.L13:
 304 029a 8091 7A00 		lds r24,122
 305 029e 86FD      		sbrc r24,6
 306 02a0 00C0      		rjmp .L13
 307 02a2 2091 7800 		lds r18,120
 308 02a6 3091 7900 		lds r19,120+1
 309 02aa C901      		movw r24,r18
 310               	/* epilogue start */
 311 02ac 0895      		ret
 313               	.global	measureAndScale
 315               	measureAndScale:
 316 02ae 1F93      		push r17
 317               	/* prologue: function */
 318               	/* frame size = 0 */
 319               	/* stack size = 1 */
 320               	.L__stack_usage = 1
 321 02b0 182F      		mov r17,r24
 322 02b2 90E0      		ldi r25,lo8(0)
 323 02b4 0E94 0000 		call startMeasure
 324 02b8 BC01      		movw r22,r24
 325 02ba 80E0      		ldi r24,lo8(0)
 326 02bc 90E0      		ldi r25,hi8(0)
 327 02be 0E94 0000 		call __floatunsisf
 328 02c2 6093 0000 		sts measurement,r22
 329 02c6 7093 0000 		sts measurement+1,r23
 330 02ca 8093 0000 		sts measurement+2,r24
 331 02ce 9093 0000 		sts measurement+3,r25
 332 02d2 E12F      		mov r30,r17
 333 02d4 F0E0      		ldi r31,lo8(0)
 334 02d6 E050      		subi r30,lo8(-(measuringVoltageFaktor))
 335 02d8 F040      		sbci r31,hi8(-(measuringVoltageFaktor))
 336 02da 2081      		ld r18,Z
 337 02dc 2130      		cpi r18,lo8(1)
 338 02de 01F4      		brne .L17
 339 02e0 29E9      		ldi r18,lo8(0x3a7e4799)
 340 02e2 37E4      		ldi r19,hi8(0x3a7e4799)
 341 02e4 4EE7      		ldi r20,hlo8(0x3a7e4799)
 342 02e6 5AE3      		ldi r21,hhi8(0x3a7e4799)
 343 02e8 00C0      		rjmp .L21
 344               	.L17:
 345 02ea 2530      		cpi r18,lo8(5)
 346 02ec 01F4      		brne .L19
 347 02ee 22E5      		ldi r18,lo8(0x3b9d4952)
 348 02f0 39E4      		ldi r19,hi8(0x3b9d4952)
 349 02f2 4DE9      		ldi r20,hlo8(0x3b9d4952)
 350 02f4 5BE3      		ldi r21,hhi8(0x3b9d4952)
 351 02f6 00C0      		rjmp .L21
 352               	.L19:
 353 02f8 2A31      		cpi r18,lo8(26)
 354 02fa 01F4      		brne .L20
 355 02fc 22E4      		ldi r18,lo8(0x3ce56042)
 356 02fe 30E6      		ldi r19,hi8(0x3ce56042)
 357 0300 45EE      		ldi r20,hlo8(0x3ce56042)
 358 0302 5CE3      		ldi r21,hhi8(0x3ce56042)
 359 0304 00C0      		rjmp .L21
 360               	.L20:
 361 0306 2F36      		cpi r18,lo8(111)
 362 0308 01F4      		brne .L16
 363 030a 29EB      		ldi r18,lo8(0x3ec7fcb9)
 364 030c 3CEF      		ldi r19,hi8(0x3ec7fcb9)
 365 030e 47EC      		ldi r20,hlo8(0x3ec7fcb9)
 366 0310 5EE3      		ldi r21,hhi8(0x3ec7fcb9)
 367               	.L21:
 368 0312 0E94 0000 		call __mulsf3
 369 0316 6093 0000 		sts measurement,r22
 370 031a 7093 0000 		sts measurement+1,r23
 371 031e 8093 0000 		sts measurement+2,r24
 372 0322 9093 0000 		sts measurement+3,r25
 373               	.L16:
 374               	/* epilogue start */
 375 0326 1F91      		pop r17
 376 0328 0895      		ret
 378               	.global	getUnit
 380               	getUnit:
 381               	/* prologue: function */
 382               	/* frame size = 0 */
 383               	/* stack size = 0 */
 384               	.L__stack_usage = 0
 385 032a E82F      		mov r30,r24
 386 032c F0E0      		ldi r31,lo8(0)
 387 032e E050      		subi r30,lo8(-(portModeMeasure))
 388 0330 F040      		sbci r31,hi8(-(portModeMeasure))
 389 0332 8081      		ld r24,Z
 390 0334 8330      		cpi r24,lo8(3)
 391 0336 01F0      		breq .L26
 392 0338 8430      		cpi r24,lo8(4)
 393 033a 00F4      		brsh .L29
 394 033c 8130      		cpi r24,lo8(1)
 395 033e 01F0      		breq .L24
 396 0340 8230      		cpi r24,lo8(2)
 397 0342 01F4      		brne .L30
 398 0344 00C0      		rjmp .L31
 399               	.L29:
 400 0346 8430      		cpi r24,lo8(4)
 401 0348 01F0      		breq .L27
 402 034a 8530      		cpi r24,lo8(5)
 403 034c 01F4      		brne .L30
 404 034e 00C0      		rjmp .L32
 405               	.L26:
 406 0350 6091 0000 		lds r22,measurement
 407 0354 7091 0000 		lds r23,measurement+1
 408 0358 8091 0000 		lds r24,measurement+2
 409 035c 9091 0000 		lds r25,measurement+3
 410 0360 00C0      		rjmp .L23
 411               	.L31:
 412 0362 0E94 0000 		call getLightIntensity
 413 0366 00C0      		rjmp .L23
 414               	.L24:
 415 0368 0E94 0000 		call getTemp
 416 036c 00C0      		rjmp .L23
 417               	.L27:
 418 036e 0E94 0000 		call getNoise
 419 0372 00C0      		rjmp .L23
 420               	.L32:
 421 0374 0E94 0000 		call getDistance
 422 0378 00C0      		rjmp .L23
 423               	.L30:
 424 037a 60E0      		ldi r22,lo8(0)
 425 037c 70E0      		ldi r23,lo8(0)
 426 037e 80E8      		ldi r24,lo8(-128)
 427 0380 9FEB      		ldi r25,lo8(-65)
 428               	.L23:
 429               	/* epilogue start */
 430 0382 0895      		ret
 432               	.global	sendReactCAN
 434               	sendReactCAN:
 435               	/* prologue: function */
 436               	/* frame size = 0 */
 437               	/* stack size = 0 */
 438               	.L__stack_usage = 0
 439               	/* epilogue start */
 440 0384 0895      		ret
 442               		.data
 443               	.LC0:
 444 0000 4830 3A00 		.string	"H0:"
 445               	.LC1:
 446 0004 4C30 3A00 		.string	"L0:"
 447               	.LC2:
 448 0008 4831 3A00 		.string	"H1:"
 449               	.LC3:
 450 000c 4C31 3A00 		.string	"L1:"
 451               		.text
 452               	.global	reactOnMeasure
 454               	reactOnMeasure:
 455 0386 CF92      		push r12
 456 0388 DF92      		push r13
 457 038a EF92      		push r14
 458 038c FF92      		push r15
 459 038e 1F93      		push r17
 460 0390 CF93      		push r28
 461 0392 DF93      		push r29
 462               	/* prologue: function */
 463               	/* frame size = 0 */
 464               	/* stack size = 7 */
 465               	.L__stack_usage = 7
 466 0394 182F      		mov r17,r24
 467 0396 0E94 0000 		call getUnit
 468 039a 6B01      		movw r12,r22
 469 039c 7C01      		movw r14,r24
 470 039e C12F      		mov r28,r17
 471 03a0 D0E0      		ldi r29,lo8(0)
 472 03a2 FE01      		movw r30,r28
 473 03a4 E050      		subi r30,lo8(-(portToRelais))
 474 03a6 F040      		sbci r31,hi8(-(portToRelais))
 475 03a8 8081      		ld r24,Z
 476 03aa 8823      		tst r24
 477 03ac 01F0      		breq .L36
 478 03ae 8130      		cpi r24,lo8(1)
 479 03b0 01F0      		breq .+2
 480 03b2 00C0      		rjmp .L34
 481 03b4 00C0      		rjmp .L61
 482               	.L36:
 483 03b6 FE01      		movw r30,r28
 484 03b8 E050      		subi r30,lo8(-(reactionTriggerMode))
 485 03ba F040      		sbci r31,hi8(-(reactionTriggerMode))
 486 03bc 8081      		ld r24,Z
 487 03be 8130      		cpi r24,lo8(1)
 488 03c0 01F0      		breq .+2
 489 03c2 00C0      		rjmp .L38
 490 03c4 FE01      		movw r30,r28
 491 03c6 EE0F      		lsl r30
 492 03c8 FF1F      		rol r31
 493 03ca EE0F      		lsl r30
 494 03cc FF1F      		rol r31
 495 03ce E050      		subi r30,lo8(-(reactionValues))
 496 03d0 F040      		sbci r31,hi8(-(reactionValues))
 497 03d2 6081      		ld r22,Z
 498 03d4 7181      		ldd r23,Z+1
 499 03d6 8281      		ldd r24,Z+2
 500 03d8 9381      		ldd r25,Z+3
 501 03da 0E94 0000 		call __floatunsisf
 502 03de FE01      		movw r30,r28
 503 03e0 E050      		subi r30,lo8(-(portModeMeasure))
 504 03e2 F040      		sbci r31,hi8(-(portModeMeasure))
 505 03e4 E081      		ld r30,Z
 506 03e6 F0E0      		ldi r31,lo8(0)
 507 03e8 EE0F      		lsl r30
 508 03ea FF1F      		rol r31
 509 03ec EE0F      		lsl r30
 510 03ee FF1F      		rol r31
 511 03f0 E050      		subi r30,lo8(-(intervalValues))
 512 03f2 F040      		sbci r31,hi8(-(intervalValues))
 513 03f4 2081      		ld r18,Z
 514 03f6 3181      		ldd r19,Z+1
 515 03f8 4281      		ldd r20,Z+2
 516 03fa 5381      		ldd r21,Z+3
 517 03fc 0E94 0000 		call __addsf3
 518 0400 9B01      		movw r18,r22
 519 0402 AC01      		movw r20,r24
 520 0404 C701      		movw r24,r14
 521 0406 B601      		movw r22,r12
 522 0408 0E94 0000 		call __ltsf2
 523 040c 87FF      		sbrs r24,7
 524 040e 00C0      		rjmp .L39
 525 0410 3199      		sbic 38-32,1
 526 0412 00C0      		rjmp .L39
 527 0414 419A      		sbi 40-32,1
 528 0416 8091 0000 		lds r24,serialCommunikation
 529 041a 8823      		tst r24
 530 041c 01F0      		breq .L39
 531 041e 80E0      		ldi r24,lo8(.LC0)
 532 0420 90E0      		ldi r25,hi8(.LC0)
 533 0422 0E94 0000 		call uart_puts
 534 0426 812F      		mov r24,r17
 535 0428 805D      		subi r24,lo8(-(48))
 536 042a 0E94 0000 		call uart_putc
 537 042e 8AE0      		ldi r24,lo8(10)
 538 0430 0E94 0000 		call uart_putc
 539               	.L39:
 540 0434 FE01      		movw r30,r28
 541 0436 EE0F      		lsl r30
 542 0438 FF1F      		rol r31
 543 043a EE0F      		lsl r30
 544 043c FF1F      		rol r31
 545 043e E050      		subi r30,lo8(-(reactionValues))
 546 0440 F040      		sbci r31,hi8(-(reactionValues))
 547 0442 6081      		ld r22,Z
 548 0444 7181      		ldd r23,Z+1
 549 0446 8281      		ldd r24,Z+2
 550 0448 9381      		ldd r25,Z+3
 551 044a 0E94 0000 		call __floatunsisf
 552 044e 9B01      		movw r18,r22
 553 0450 AC01      		movw r20,r24
 554 0452 C701      		movw r24,r14
 555 0454 B601      		movw r22,r12
 556 0456 0E94 0000 		call __gtsf2
 557 045a 1816      		cp __zero_reg__,r24
 558 045c 04F4      		brge .L38
 559 045e 319B      		sbis 38-32,1
 560 0460 00C0      		rjmp .L38
 561 0462 4198      		cbi 40-32,1
 562 0464 8091 0000 		lds r24,serialCommunikation
 563 0468 8823      		tst r24
 564 046a 01F0      		breq .L38
 565 046c 80E0      		ldi r24,lo8(.LC1)
 566 046e 90E0      		ldi r25,hi8(.LC1)
 567 0470 0E94 0000 		call uart_puts
 568 0474 812F      		mov r24,r17
 569 0476 805D      		subi r24,lo8(-(48))
 570 0478 0E94 0000 		call uart_putc
 571 047c 8AE0      		ldi r24,lo8(10)
 572 047e 0E94 0000 		call uart_putc
 573               	.L38:
 574 0482 FE01      		movw r30,r28
 575 0484 E050      		subi r30,lo8(-(reactionTriggerMode))
 576 0486 F040      		sbci r31,hi8(-(reactionTriggerMode))
 577 0488 8081      		ld r24,Z
 578 048a 8823      		tst r24
 579 048c 01F0      		breq .+2
 580 048e 00C0      		rjmp .L34
 581 0490 FE01      		movw r30,r28
 582 0492 EE0F      		lsl r30
 583 0494 FF1F      		rol r31
 584 0496 EE0F      		lsl r30
 585 0498 FF1F      		rol r31
 586 049a E050      		subi r30,lo8(-(reactionValues))
 587 049c F040      		sbci r31,hi8(-(reactionValues))
 588 049e 6081      		ld r22,Z
 589 04a0 7181      		ldd r23,Z+1
 590 04a2 8281      		ldd r24,Z+2
 591 04a4 9381      		ldd r25,Z+3
 592 04a6 0E94 0000 		call __floatunsisf
 593 04aa 9B01      		movw r18,r22
 594 04ac AC01      		movw r20,r24
 595 04ae C701      		movw r24,r14
 596 04b0 B601      		movw r22,r12
 597 04b2 0E94 0000 		call __gtsf2
 598 04b6 1816      		cp __zero_reg__,r24
 599 04b8 04F4      		brge .L42
 600 04ba 3199      		sbic 38-32,1
 601 04bc 00C0      		rjmp .L42
 602 04be 419A      		sbi 40-32,1
 603 04c0 8091 0000 		lds r24,serialCommunikation
 604 04c4 8823      		tst r24
 605 04c6 01F0      		breq .L42
 606 04c8 80E0      		ldi r24,lo8(.LC0)
 607 04ca 90E0      		ldi r25,hi8(.LC0)
 608 04cc 0E94 0000 		call uart_puts
 609 04d0 812F      		mov r24,r17
 610 04d2 805D      		subi r24,lo8(-(48))
 611 04d4 0E94 0000 		call uart_putc
 612 04d8 8AE0      		ldi r24,lo8(10)
 613 04da 0E94 0000 		call uart_putc
 614               	.L42:
 615 04de FE01      		movw r30,r28
 616 04e0 EE0F      		lsl r30
 617 04e2 FF1F      		rol r31
 618 04e4 EE0F      		lsl r30
 619 04e6 FF1F      		rol r31
 620 04e8 E050      		subi r30,lo8(-(reactionValues))
 621 04ea F040      		sbci r31,hi8(-(reactionValues))
 622 04ec 6081      		ld r22,Z
 623 04ee 7181      		ldd r23,Z+1
 624 04f0 8281      		ldd r24,Z+2
 625 04f2 9381      		ldd r25,Z+3
 626 04f4 0E94 0000 		call __floatunsisf
 627 04f8 C050      		subi r28,lo8(-(portModeMeasure))
 628 04fa D040      		sbci r29,hi8(-(portModeMeasure))
 629 04fc E881      		ld r30,Y
 630 04fe F0E0      		ldi r31,lo8(0)
 631 0500 EE0F      		lsl r30
 632 0502 FF1F      		rol r31
 633 0504 EE0F      		lsl r30
 634 0506 FF1F      		rol r31
 635 0508 E050      		subi r30,lo8(-(intervalValues))
 636 050a F040      		sbci r31,hi8(-(intervalValues))
 637 050c 2081      		ld r18,Z
 638 050e 3181      		ldd r19,Z+1
 639 0510 4281      		ldd r20,Z+2
 640 0512 5381      		ldd r21,Z+3
 641 0514 0E94 0000 		call __subsf3
 642 0518 9B01      		movw r18,r22
 643 051a AC01      		movw r20,r24
 644 051c C701      		movw r24,r14
 645 051e B601      		movw r22,r12
 646 0520 0E94 0000 		call __ltsf2
 647 0524 87FF      		sbrs r24,7
 648 0526 00C0      		rjmp .L34
 649 0528 319B      		sbis 38-32,1
 650 052a 00C0      		rjmp .L34
 651 052c 4198      		cbi 40-32,1
 652 052e 80E0      		ldi r24,lo8(.LC1)
 653 0530 90E0      		ldi r25,hi8(.LC1)
 654 0532 00C0      		rjmp .L60
 655               	.L61:
 656 0534 FE01      		movw r30,r28
 657 0536 E050      		subi r30,lo8(-(reactionTriggerMode))
 658 0538 F040      		sbci r31,hi8(-(reactionTriggerMode))
 659 053a 8081      		ld r24,Z
 660 053c 8130      		cpi r24,lo8(1)
 661 053e 01F0      		breq .+2
 662 0540 00C0      		rjmp .L45
 663 0542 FE01      		movw r30,r28
 664 0544 EE0F      		lsl r30
 665 0546 FF1F      		rol r31
 666 0548 EE0F      		lsl r30
 667 054a FF1F      		rol r31
 668 054c E050      		subi r30,lo8(-(reactionValues))
 669 054e F040      		sbci r31,hi8(-(reactionValues))
 670 0550 6081      		ld r22,Z
 671 0552 7181      		ldd r23,Z+1
 672 0554 8281      		ldd r24,Z+2
 673 0556 9381      		ldd r25,Z+3
 674 0558 0E94 0000 		call __floatunsisf
 675 055c FE01      		movw r30,r28
 676 055e E050      		subi r30,lo8(-(portModeMeasure))
 677 0560 F040      		sbci r31,hi8(-(portModeMeasure))
 678 0562 E081      		ld r30,Z
 679 0564 F0E0      		ldi r31,lo8(0)
 680 0566 EE0F      		lsl r30
 681 0568 FF1F      		rol r31
 682 056a EE0F      		lsl r30
 683 056c FF1F      		rol r31
 684 056e E050      		subi r30,lo8(-(intervalValues))
 685 0570 F040      		sbci r31,hi8(-(intervalValues))
 686 0572 2081      		ld r18,Z
 687 0574 3181      		ldd r19,Z+1
 688 0576 4281      		ldd r20,Z+2
 689 0578 5381      		ldd r21,Z+3
 690 057a 0E94 0000 		call __addsf3
 691 057e 9B01      		movw r18,r22
 692 0580 AC01      		movw r20,r24
 693 0582 C701      		movw r24,r14
 694 0584 B601      		movw r22,r12
 695 0586 0E94 0000 		call __ltsf2
 696 058a 87FF      		sbrs r24,7
 697 058c 00C0      		rjmp .L46
 698 058e 3299      		sbic 38-32,2
 699 0590 00C0      		rjmp .L46
 700 0592 429A      		sbi 40-32,2
 701 0594 8091 0000 		lds r24,serialCommunikation
 702 0598 8823      		tst r24
 703 059a 01F0      		breq .L46
 704 059c 80E0      		ldi r24,lo8(.LC2)
 705 059e 90E0      		ldi r25,hi8(.LC2)
 706 05a0 0E94 0000 		call uart_puts
 707 05a4 812F      		mov r24,r17
 708 05a6 805D      		subi r24,lo8(-(48))
 709 05a8 0E94 0000 		call uart_putc
 710 05ac 8AE0      		ldi r24,lo8(10)
 711 05ae 0E94 0000 		call uart_putc
 712               	.L46:
 713 05b2 FE01      		movw r30,r28
 714 05b4 EE0F      		lsl r30
 715 05b6 FF1F      		rol r31
 716 05b8 EE0F      		lsl r30
 717 05ba FF1F      		rol r31
 718 05bc E050      		subi r30,lo8(-(reactionValues))
 719 05be F040      		sbci r31,hi8(-(reactionValues))
 720 05c0 6081      		ld r22,Z
 721 05c2 7181      		ldd r23,Z+1
 722 05c4 8281      		ldd r24,Z+2
 723 05c6 9381      		ldd r25,Z+3
 724 05c8 0E94 0000 		call __floatunsisf
 725 05cc 9B01      		movw r18,r22
 726 05ce AC01      		movw r20,r24
 727 05d0 C701      		movw r24,r14
 728 05d2 B601      		movw r22,r12
 729 05d4 0E94 0000 		call __gtsf2
 730 05d8 1816      		cp __zero_reg__,r24
 731 05da 04F4      		brge .L45
 732 05dc 329B      		sbis 38-32,2
 733 05de 00C0      		rjmp .L45
 734 05e0 4298      		cbi 40-32,2
 735 05e2 8091 0000 		lds r24,serialCommunikation
 736 05e6 8823      		tst r24
 737 05e8 01F0      		breq .L45
 738 05ea 80E0      		ldi r24,lo8(.LC3)
 739 05ec 90E0      		ldi r25,hi8(.LC3)
 740 05ee 0E94 0000 		call uart_puts
 741 05f2 812F      		mov r24,r17
 742 05f4 805D      		subi r24,lo8(-(48))
 743 05f6 0E94 0000 		call uart_putc
 744 05fa 8AE0      		ldi r24,lo8(10)
 745 05fc 0E94 0000 		call uart_putc
 746               	.L45:
 747 0600 FE01      		movw r30,r28
 748 0602 E050      		subi r30,lo8(-(reactionTriggerMode))
 749 0604 F040      		sbci r31,hi8(-(reactionTriggerMode))
 750 0606 8081      		ld r24,Z
 751 0608 8823      		tst r24
 752 060a 01F0      		breq .+2
 753 060c 00C0      		rjmp .L34
 754 060e FE01      		movw r30,r28
 755 0610 EE0F      		lsl r30
 756 0612 FF1F      		rol r31
 757 0614 EE0F      		lsl r30
 758 0616 FF1F      		rol r31
 759 0618 E050      		subi r30,lo8(-(reactionValues))
 760 061a F040      		sbci r31,hi8(-(reactionValues))
 761 061c 6081      		ld r22,Z
 762 061e 7181      		ldd r23,Z+1
 763 0620 8281      		ldd r24,Z+2
 764 0622 9381      		ldd r25,Z+3
 765 0624 0E94 0000 		call __floatunsisf
 766 0628 FE01      		movw r30,r28
 767 062a E050      		subi r30,lo8(-(portModeMeasure))
 768 062c F040      		sbci r31,hi8(-(portModeMeasure))
 769 062e E081      		ld r30,Z
 770 0630 F0E0      		ldi r31,lo8(0)
 771 0632 EE0F      		lsl r30
 772 0634 FF1F      		rol r31
 773 0636 EE0F      		lsl r30
 774 0638 FF1F      		rol r31
 775 063a E050      		subi r30,lo8(-(intervalValues))
 776 063c F040      		sbci r31,hi8(-(intervalValues))
 777 063e 2081      		ld r18,Z
 778 0640 3181      		ldd r19,Z+1
 779 0642 4281      		ldd r20,Z+2
 780 0644 5381      		ldd r21,Z+3
 781 0646 0E94 0000 		call __subsf3
 782 064a 9B01      		movw r18,r22
 783 064c AC01      		movw r20,r24
 784 064e C701      		movw r24,r14
 785 0650 B601      		movw r22,r12
 786 0652 0E94 0000 		call __gtsf2
 787 0656 1816      		cp __zero_reg__,r24
 788 0658 04F4      		brge .L49
 789 065a 3299      		sbic 38-32,2
 790 065c 00C0      		rjmp .L49
 791 065e 429A      		sbi 40-32,2
 792 0660 8091 0000 		lds r24,serialCommunikation
 793 0664 8823      		tst r24
 794 0666 01F0      		breq .L49
 795 0668 80E0      		ldi r24,lo8(.LC2)
 796 066a 90E0      		ldi r25,hi8(.LC2)
 797 066c 0E94 0000 		call uart_puts
 798 0670 812F      		mov r24,r17
 799 0672 805D      		subi r24,lo8(-(48))
 800 0674 0E94 0000 		call uart_putc
 801 0678 8AE0      		ldi r24,lo8(10)
 802 067a 0E94 0000 		call uart_putc
 803               	.L49:
 804 067e CC0F      		lsl r28
 805 0680 DD1F      		rol r29
 806 0682 CC0F      		lsl r28
 807 0684 DD1F      		rol r29
 808 0686 C050      		subi r28,lo8(-(reactionValues))
 809 0688 D040      		sbci r29,hi8(-(reactionValues))
 810 068a 6881      		ld r22,Y
 811 068c 7981      		ldd r23,Y+1
 812 068e 8A81      		ldd r24,Y+2
 813 0690 9B81      		ldd r25,Y+3
 814 0692 6550      		subi r22,lo8(-(-5))
 815 0694 7040      		sbci r23,hi8(-(-5))
 816 0696 8040      		sbci r24,hlo8(-(-5))
 817 0698 9040      		sbci r25,hhi8(-(-5))
 818 069a 0E94 0000 		call __floatunsisf
 819 069e 9B01      		movw r18,r22
 820 06a0 AC01      		movw r20,r24
 821 06a2 C701      		movw r24,r14
 822 06a4 B601      		movw r22,r12
 823 06a6 0E94 0000 		call __ltsf2
 824 06aa 87FF      		sbrs r24,7
 825 06ac 00C0      		rjmp .L34
 826 06ae 329B      		sbis 38-32,2
 827 06b0 00C0      		rjmp .L34
 828 06b2 4298      		cbi 40-32,2
 829 06b4 8091 0000 		lds r24,serialCommunikation
 830 06b8 8823      		tst r24
 831 06ba 01F0      		breq .L34
 832 06bc 80E0      		ldi r24,lo8(.LC3)
 833 06be 90E0      		ldi r25,hi8(.LC3)
 834               	.L60:
 835 06c0 0E94 0000 		call uart_puts
 836 06c4 812F      		mov r24,r17
 837 06c6 805D      		subi r24,lo8(-(48))
 838 06c8 0E94 0000 		call uart_putc
 839 06cc 8AE0      		ldi r24,lo8(10)
 840 06ce 0E94 0000 		call uart_putc
 841               	.L34:
 842               	/* epilogue start */
 843 06d2 DF91      		pop r29
 844 06d4 CF91      		pop r28
 845 06d6 1F91      		pop r17
 846 06d8 FF90      		pop r15
 847 06da EF90      		pop r14
 848 06dc DF90      		pop r13
 849 06de CF90      		pop r12
 850 06e0 0895      		ret
 852               		.data
 853               	.LC4:
 854 0010 503A 00   		.string	"P:"
 855               	.LC5:
 856 0013 2056 00   		.string	" V"
 857               	.LC6:
 858 0016 204C 00   		.string	" L"
 859               	.LC7:
 860 0019 2043 00   		.string	" C"
 861               	.LC8:
 862 001c 2053 00   		.string	" S"
 863               	.LC9:
 864 001f 2063 6D00 		.string	" cm"
 865               	.LC10:
 866 0023 204C 6564 		.string	" Led"
 866      00
 867               		.text
 868               	.global	sendMeasureUART
 870               	sendMeasureUART:
 871 06e2 FF92      		push r15
 872 06e4 0F93      		push r16
 873 06e6 1F93      		push r17
 874 06e8 CF93      		push r28
 875 06ea DF93      		push r29
 876               	/* prologue: function */
 877               	/* frame size = 0 */
 878               	/* stack size = 5 */
 879               	.L__stack_usage = 5
 880 06ec F82E      		mov r15,r24
 881 06ee C82F      		mov r28,r24
 882 06f0 D0E0      		ldi r29,lo8(0)
 883 06f2 FE01      		movw r30,r28
 884 06f4 E050      		subi r30,lo8(-(portModeMeasure))
 885 06f6 F040      		sbci r31,hi8(-(portModeMeasure))
 886 06f8 8081      		ld r24,Z
 887 06fa 8330      		cpi r24,lo8(3)
 888 06fc 01F0      		breq .L66
 889 06fe 8430      		cpi r24,lo8(4)
 890 0700 00F4      		brsh .L70
 891 0702 8130      		cpi r24,lo8(1)
 892 0704 01F0      		breq .L64
 893 0706 8230      		cpi r24,lo8(2)
 894 0708 01F4      		brne .L63
 895 070a 00C0      		rjmp .L82
 896               	.L70:
 897 070c 8530      		cpi r24,lo8(5)
 898 070e 01F0      		breq .L68
 899 0710 8530      		cpi r24,lo8(5)
 900 0712 00F0      		brlo .L67
 901 0714 8630      		cpi r24,lo8(6)
 902 0716 01F4      		brne .L63
 903 0718 00C0      		rjmp .L83
 904               	.L66:
 905 071a 6091 0000 		lds r22,measurement
 906 071e 7091 0000 		lds r23,measurement+1
 907 0722 8091 0000 		lds r24,measurement+2
 908 0726 9091 0000 		lds r25,measurement+3
 909 072a 47E0      		ldi r20,lo8(7)
 910 072c 23E0      		ldi r18,lo8(3)
 911 072e 00C0      		rjmp .L79
 912               	.L82:
 913 0730 0E94 0000 		call getLightIntensity
 914 0734 00C0      		rjmp .L81
 915               	.L64:
 916 0736 0E94 0000 		call getTemp
 917 073a 00C0      		rjmp .L81
 918               	.L67:
 919 073c 0E94 0000 		call getNoise
 920 0740 00C0      		rjmp .L81
 921               	.L68:
 922 0742 0E94 0000 		call getDistance
 923 0746 00C0      		rjmp .L81
 924               	.L83:
 925 0748 6091 0000 		lds r22,measurement
 926 074c 7091 0000 		lds r23,measurement+1
 927 0750 8091 0000 		lds r24,measurement+2
 928 0754 9091 0000 		lds r25,measurement+3
 929               	.L81:
 930 0758 47E0      		ldi r20,lo8(7)
 931 075a 21E0      		ldi r18,lo8(1)
 932               	.L79:
 933 075c 00E0      		ldi r16,lo8(voltageValueBuffer)
 934 075e 10E0      		ldi r17,hi8(voltageValueBuffer)
 935 0760 0E94 0000 		call dtostrf
 936               	.L63:
 937 0764 80E0      		ldi r24,lo8(.LC4)
 938 0766 90E0      		ldi r25,hi8(.LC4)
 939 0768 0E94 0000 		call uart_puts
 940 076c 8F2D      		mov r24,r15
 941 076e 805D      		subi r24,lo8(-(48))
 942 0770 0E94 0000 		call uart_putc
 943 0774 8BE3      		ldi r24,lo8(59)
 944 0776 0E94 0000 		call uart_putc
 945 077a 80E0      		ldi r24,lo8(voltageValueBuffer+1)
 946 077c 90E0      		ldi r25,hi8(voltageValueBuffer+1)
 947 077e 0E94 0000 		call uart_puts
 948 0782 C050      		subi r28,lo8(-(portModeMeasure))
 949 0784 D040      		sbci r29,hi8(-(portModeMeasure))
 950 0786 8881      		ld r24,Y
 951 0788 8330      		cpi r24,lo8(3)
 952 078a 01F0      		breq .L74
 953 078c 8430      		cpi r24,lo8(4)
 954 078e 00F4      		brsh .L78
 955 0790 8130      		cpi r24,lo8(1)
 956 0792 01F0      		breq .L72
 957 0794 8230      		cpi r24,lo8(2)
 958 0796 01F4      		brne .L71
 959 0798 00C0      		rjmp .L84
 960               	.L78:
 961 079a 8530      		cpi r24,lo8(5)
 962 079c 01F0      		breq .L76
 963 079e 8530      		cpi r24,lo8(5)
 964 07a0 00F0      		brlo .L75
 965 07a2 8630      		cpi r24,lo8(6)
 966 07a4 01F4      		brne .L71
 967 07a6 00C0      		rjmp .L85
 968               	.L74:
 969 07a8 80E0      		ldi r24,lo8(.LC5)
 970 07aa 90E0      		ldi r25,hi8(.LC5)
 971 07ac 00C0      		rjmp .L80
 972               	.L84:
 973 07ae 80E0      		ldi r24,lo8(.LC6)
 974 07b0 90E0      		ldi r25,hi8(.LC6)
 975 07b2 00C0      		rjmp .L80
 976               	.L72:
 977 07b4 80E0      		ldi r24,lo8(.LC7)
 978 07b6 90E0      		ldi r25,hi8(.LC7)
 979 07b8 00C0      		rjmp .L80
 980               	.L75:
 981 07ba 80E0      		ldi r24,lo8(.LC8)
 982 07bc 90E0      		ldi r25,hi8(.LC8)
 983 07be 00C0      		rjmp .L80
 984               	.L76:
 985 07c0 80E0      		ldi r24,lo8(.LC9)
 986 07c2 90E0      		ldi r25,hi8(.LC9)
 987 07c4 00C0      		rjmp .L80
 988               	.L85:
 989 07c6 80E0      		ldi r24,lo8(.LC10)
 990 07c8 90E0      		ldi r25,hi8(.LC10)
 991               	.L80:
 992 07ca 0E94 0000 		call uart_puts
 993               	.L71:
 994 07ce 8AE0      		ldi r24,lo8(10)
 995 07d0 0E94 0000 		call uart_putc
 996               	/* epilogue start */
 997 07d4 DF91      		pop r29
 998 07d6 CF91      		pop r28
 999 07d8 1F91      		pop r17
 1000 07da 0F91      		pop r16
 1001 07dc FF90      		pop r15
 1002 07de 0895      		ret
 1004               	.global	generateCANMsg
 1006               	generateCANMsg:
 1007 07e0 FF92      		push r15
 1008 07e2 0F93      		push r16
 1009 07e4 1F93      		push r17
 1010 07e6 CF93      		push r28
 1011 07e8 DF93      		push r29
 1012               	/* prologue: function */
 1013               	/* frame size = 0 */
 1014               	/* stack size = 5 */
 1015               	.L__stack_usage = 5
 1016 07ea EC01      		movw r28,r24
 1017 07ec F62E      		mov r15,r22
 1018 07ee 6B30      		cpi r22,lo8(11)
 1019 07f0 00F0      		brlo .L87
 1020 07f2 8FE6      		ldi r24,lo8(111)
 1021 07f4 8D83      		std Y+5,r24
 1022 07f6 8BE6      		ldi r24,lo8(107)
 1023 07f8 8E83      		std Y+6,r24
 1024 07fa 8F2D      		mov r24,r15
 1025 07fc 8A50      		subi r24,lo8(-(-10))
 1026 07fe 8F83      		std Y+7,r24
 1027 0800 00C0      		rjmp .L88
 1028               	.L87:
 1029 0802 8F2D      		mov r24,r15
 1030 0804 8A30      		cpi r24,lo8(10)
 1031 0806 01F4      		brne .L88
 1032 0808 1882      		st Y,__zero_reg__
 1033 080a 80E9      		ldi r24,lo8(-112)
 1034 080c 8983      		std Y+1,r24
 1035 080e 85E5      		ldi r24,lo8(85)
 1036 0810 8A83      		std Y+2,r24
 1037 0812 1B82      		std Y+3,__zero_reg__
 1038 0814 8C81      		ldd r24,Y+4
 1039 0816 807E      		andi r24,lo8(-32)
 1040 0818 8460      		ori r24,lo8(4)
 1041 081a 8C83      		std Y+4,r24
 1042 081c 8FE6      		ldi r24,lo8(111)
 1043 081e 8D83      		std Y+5,r24
 1044 0820 8BE6      		ldi r24,lo8(107)
 1045 0822 8E83      		std Y+6,r24
 1046 0824 00C0      		rjmp .L86
 1047               	.L88:
 1048 0826 1882      		st Y,__zero_reg__
 1049 0828 80E9      		ldi r24,lo8(-112)
 1050 082a 8983      		std Y+1,r24
 1051 082c 85E5      		ldi r24,lo8(85)
 1052 082e 8A83      		std Y+2,r24
 1053 0830 1B82      		std Y+3,__zero_reg__
 1054 0832 8C81      		ldd r24,Y+4
 1055 0834 807E      		andi r24,lo8(-32)
 1056 0836 8061      		ori r24,lo8(16)
 1057 0838 8C83      		std Y+4,r24
 1058 083a EF2D      		mov r30,r15
 1059 083c F0E0      		ldi r31,lo8(0)
 1060 083e E050      		subi r30,lo8(-(portModeMeasure))
 1061 0840 F040      		sbci r31,hi8(-(portModeMeasure))
 1062 0842 8081      		ld r24,Z
 1063 0844 8330      		cpi r24,lo8(3)
 1064 0846 01F0      		breq .L93
 1065 0848 8430      		cpi r24,lo8(4)
 1066 084a 00F4      		brsh .L96
 1067 084c 8130      		cpi r24,lo8(1)
 1068 084e 01F0      		breq .L91
 1069 0850 8230      		cpi r24,lo8(2)
 1070 0852 01F4      		brne .L90
 1071 0854 00C0      		rjmp .L110
 1072               	.L96:
 1073 0856 8430      		cpi r24,lo8(4)
 1074 0858 01F0      		breq .L94
 1075 085a 8530      		cpi r24,lo8(5)
 1076 085c 01F4      		brne .L90
 1077 085e 00C0      		rjmp .L111
 1078               	.L93:
 1079 0860 6091 0000 		lds r22,measurement
 1080 0864 7091 0000 		lds r23,measurement+1
 1081 0868 8091 0000 		lds r24,measurement+2
 1082 086c 9091 0000 		lds r25,measurement+3
 1083 0870 00C0      		rjmp .L97
 1084               	.L110:
 1085 0872 0E94 0000 		call getLightIntensity
 1086 0876 00C0      		rjmp .L98
 1087               	.L91:
 1088 0878 0E94 0000 		call getTemp
 1089 087c 00C0      		rjmp .L99
 1090               	.L94:
 1091 087e 0E94 0000 		call getNoise
 1092 0882 00C0      		rjmp .L100
 1093               	.L111:
 1094 0884 0E94 0000 		call getDistance
 1095 0888 00C0      		rjmp .L101
 1096               	.L90:
 1097 088a 8330      		cpi r24,lo8(3)
 1098 088c 01F0      		breq .L106
 1099 088e 8430      		cpi r24,lo8(4)
 1100 0890 00F4      		brsh .L103
 1101 0892 8130      		cpi r24,lo8(1)
 1102 0894 01F0      		breq .L104
 1103 0896 8230      		cpi r24,lo8(2)
 1104 0898 01F0      		breq .+2
 1105 089a 00C0      		rjmp .L102
 1106 089c 00C0      		rjmp .L112
 1107               	.L103:
 1108 089e 8430      		cpi r24,lo8(4)
 1109 08a0 01F0      		breq .L107
 1110 08a2 8530      		cpi r24,lo8(5)
 1111 08a4 01F4      		brne .L102
 1112 08a6 00C0      		rjmp .L113
 1113               	.L106:
 1114 08a8 60E0      		ldi r22,lo8(0x0)
 1115 08aa 70E0      		ldi r23,hi8(0x0)
 1116 08ac CB01      		movw r24,r22
 1117               	.L97:
 1118 08ae 8E01      		movw r16,r28
 1119 08b0 0B5F      		subi r16,lo8(-(5))
 1120 08b2 1F4F      		sbci r17,hi8(-(5))
 1121 08b4 45E0      		ldi r20,lo8(5)
 1122 08b6 23E0      		ldi r18,lo8(3)
 1123 08b8 0E94 0000 		call dtostrf
 1124 08bc 86E5      		ldi r24,lo8(86)
 1125 08be 00C0      		rjmp .L109
 1126               	.L112:
 1127 08c0 60E0      		ldi r22,lo8(0x0)
 1128 08c2 70E0      		ldi r23,hi8(0x0)
 1129 08c4 CB01      		movw r24,r22
 1130               	.L98:
 1131 08c6 8E01      		movw r16,r28
 1132 08c8 0B5F      		subi r16,lo8(-(5))
 1133 08ca 1F4F      		sbci r17,hi8(-(5))
 1134 08cc 45E0      		ldi r20,lo8(5)
 1135 08ce 21E0      		ldi r18,lo8(1)
 1136 08d0 0E94 0000 		call dtostrf
 1137 08d4 8CE4      		ldi r24,lo8(76)
 1138 08d6 00C0      		rjmp .L109
 1139               	.L104:
 1140 08d8 60E0      		ldi r22,lo8(0x0)
 1141 08da 70E0      		ldi r23,hi8(0x0)
 1142 08dc CB01      		movw r24,r22
 1143               	.L99:
 1144 08de 8E01      		movw r16,r28
 1145 08e0 0B5F      		subi r16,lo8(-(5))
 1146 08e2 1F4F      		sbci r17,hi8(-(5))
 1147 08e4 45E0      		ldi r20,lo8(5)
 1148 08e6 21E0      		ldi r18,lo8(1)
 1149 08e8 0E94 0000 		call dtostrf
 1150 08ec 83E4      		ldi r24,lo8(67)
 1151 08ee 00C0      		rjmp .L109
 1152               	.L107:
 1153 08f0 60E0      		ldi r22,lo8(0x0)
 1154 08f2 70E0      		ldi r23,hi8(0x0)
 1155 08f4 CB01      		movw r24,r22
 1156               	.L100:
 1157 08f6 8E01      		movw r16,r28
 1158 08f8 0B5F      		subi r16,lo8(-(5))
 1159 08fa 1F4F      		sbci r17,hi8(-(5))
 1160 08fc 45E0      		ldi r20,lo8(5)
 1161 08fe 21E0      		ldi r18,lo8(1)
 1162 0900 0E94 0000 		call dtostrf
 1163 0904 83E5      		ldi r24,lo8(83)
 1164 0906 00C0      		rjmp .L109
 1165               	.L113:
 1166 0908 60E0      		ldi r22,lo8(0x0)
 1167 090a 70E0      		ldi r23,hi8(0x0)
 1168 090c CB01      		movw r24,r22
 1169               	.L101:
 1170 090e 8E01      		movw r16,r28
 1171 0910 0B5F      		subi r16,lo8(-(5))
 1172 0912 1F4F      		sbci r17,hi8(-(5))
 1173 0914 45E0      		ldi r20,lo8(5)
 1174 0916 21E0      		ldi r18,lo8(1)
 1175 0918 0E94 0000 		call dtostrf
 1176 091c 84E4      		ldi r24,lo8(68)
 1177               	.L109:
 1178 091e 8B87      		std Y+11,r24
 1179               	.L102:
 1180 0920 80E2      		ldi r24,lo8(32)
 1181 0922 8A87      		std Y+10,r24
 1182 0924 FC86      		std Y+12,r15
 1183               	.L86:
 1184               	/* epilogue start */
 1185 0926 DF91      		pop r29
 1186 0928 CF91      		pop r28
 1187 092a 1F91      		pop r17
 1188 092c 0F91      		pop r16
 1189 092e FF90      		pop r15
 1190 0930 0895      		ret
 1192               		.data
 1193               	.LC11:
 1194 0028 3236 2073 		.string	"26 set \n"
 1194      6574 200A 
 1194      00
 1195               	.LC12:
 1196 0031 3520 7365 		.string	"5 set \n"
 1196      7420 0A00 
 1197               	.LC13:
 1198 0039 3430 3020 		.string	"400 set \n"
 1198      7365 7420 
 1198      0A00 
 1199               	.LC14:
 1200 0043 0A0A 202D 		.string	"\n\n ---  new config set !!! \n\n"
 1200      2D2D 2020 
 1200      6E65 7720 
 1200      636F 6E66 
 1200      6967 2073 
 1201               	.LC15:
 1202 0061 7465 6D70 		.string	"temp set \n"
 1202      2073 6574 
 1202      200A 00
 1203               	.LC16:
 1204 006c 6C69 6768 		.string	"light set \n"
 1204      7420 7365 
 1204      7420 0A00 
 1205               	.LC17:
 1206 0078 766F 6C20 		.string	"vol set \n"
 1206      7365 7420 
 1206      0A00 
 1207               	.LC18:
 1208 0082 6E6F 6973 		.string	"noise set \n"
 1208      6520 7365 
 1208      7420 0A00 
 1209               	.LC19:
 1210 008e 6469 7374 		.string	"distance set \n"
 1210      616E 6365 
 1210      2073 6574 
 1210      200A 00
 1211               		.text
 1212               	.global	readUARTConfig
 1214               	readUARTConfig:
 1215 0932 BF92      		push r11
 1216 0934 CF92      		push r12
 1217 0936 DF92      		push r13
 1218 0938 EF92      		push r14
 1219 093a FF92      		push r15
 1220 093c 0F93      		push r16
 1221 093e 1F93      		push r17
 1222               	/* prologue: function */
 1223               	/* frame size = 0 */
 1224               	/* stack size = 7 */
 1225               	.L__stack_usage = 7
 1226 0940 8134      		cpi r24,lo8(65)
 1227 0942 01F4      		brne .L115
 1228 0944 18E0      		ldi r17,lo8(8)
 1229 0946 AFE6      		ldi r26,lo8(111)
 1230 0948 DA2E      		mov r13,r26
 1231 094a F5E0      		ldi r31,lo8(5)
 1232 094c EF2E      		mov r14,r31
 1233 094e EAE1      		ldi r30,lo8(26)
 1234 0950 FE2E      		mov r15,r30
 1235               	.L120:
 1236 0952 0E94 0000 		call uart_getc
 1237 0956 082F      		mov r16,r24
 1238 0958 0E94 0000 		call uart_getc
 1239 095c 8A33      		cpi r24,lo8(58)
 1240 095e 01F0      		breq .+2
 1241 0960 00C0      		rjmp .L144
 1242 0962 0E94 0000 		call uart_getc
 1243 0966 8233      		cpi r24,lo8(50)
 1244 0968 01F4      		brne .L117
 1245 096a E02F      		mov r30,r16
 1246 096c F0E0      		ldi r31,lo8(0)
 1247 096e E050      		subi r30,lo8(-(measuringVoltageFaktor-48))
 1248 0970 F040      		sbci r31,hi8(-(measuringVoltageFaktor-48))
 1249 0972 F082      		st Z,r15
 1250 0974 80E0      		ldi r24,lo8(.LC11)
 1251 0976 90E0      		ldi r25,hi8(.LC11)
 1252 0978 00C0      		rjmp .L147
 1253               	.L117:
 1254 097a 8533      		cpi r24,lo8(53)
 1255 097c 01F4      		brne .L119
 1256 097e E02F      		mov r30,r16
 1257 0980 F0E0      		ldi r31,lo8(0)
 1258 0982 E050      		subi r30,lo8(-(measuringVoltageFaktor-48))
 1259 0984 F040      		sbci r31,hi8(-(measuringVoltageFaktor-48))
 1260 0986 E082      		st Z,r14
 1261 0988 80E0      		ldi r24,lo8(.LC12)
 1262 098a 90E0      		ldi r25,hi8(.LC12)
 1263 098c 00C0      		rjmp .L147
 1264               	.L119:
 1265 098e 8433      		cpi r24,lo8(52)
 1266 0990 01F4      		brne .L118
 1267 0992 E02F      		mov r30,r16
 1268 0994 F0E0      		ldi r31,lo8(0)
 1269 0996 E050      		subi r30,lo8(-(measuringVoltageFaktor-48))
 1270 0998 F040      		sbci r31,hi8(-(measuringVoltageFaktor-48))
 1271 099a D082      		st Z,r13
 1272 099c 80E0      		ldi r24,lo8(.LC13)
 1273 099e 90E0      		ldi r25,hi8(.LC13)
 1274               	.L147:
 1275 09a0 0E94 0000 		call uart_puts
 1276               	.L118:
 1277 09a4 0E94 0000 		call uart_getc
 1278 09a8 8B33      		cpi r24,lo8(59)
 1279 09aa 01F0      		breq .+2
 1280 09ac 00C0      		rjmp .L144
 1281 09ae 1150      		subi r17,lo8(-(-1))
 1282 09b0 01F4      		brne .L120
 1283               	.L115:
 1284 09b2 0E94 0000 		call uart_getc
 1285 09b6 8534      		cpi r24,lo8(69)
 1286 09b8 01F4      		brne .+2
 1287 09ba 00C0      		rjmp .L149
 1288               	.L121:
 1289 09bc 8D34      		cpi r24,lo8(77)
 1290 09be 01F0      		breq .+2
 1291 09c0 00C0      		rjmp .L122
 1292 09c2 18E0      		ldi r17,lo8(8)
 1293 09c4 75E0      		ldi r23,lo8(5)
 1294 09c6 C72E      		mov r12,r23
 1295 09c8 64E0      		ldi r22,lo8(4)
 1296 09ca D62E      		mov r13,r22
 1297 09cc 53E0      		ldi r21,lo8(3)
 1298 09ce E52E      		mov r14,r21
 1299 09d0 42E0      		ldi r20,lo8(2)
 1300 09d2 F42E      		mov r15,r20
 1301 09d4 01E0      		ldi r16,lo8(1)
 1302               	.L129:
 1303 09d6 0E94 0000 		call uart_getc
 1304 09da B82E      		mov r11,r24
 1305 09dc 0E94 0000 		call uart_getc
 1306 09e0 8A33      		cpi r24,lo8(58)
 1307 09e2 01F0      		breq .+2
 1308 09e4 00C0      		rjmp .L144
 1309 09e6 0E94 0000 		call uart_getc
 1310 09ea 8133      		cpi r24,lo8(49)
 1311 09ec 01F4      		brne .L123
 1312 09ee EB2D      		mov r30,r11
 1313 09f0 F0E0      		ldi r31,lo8(0)
 1314 09f2 E050      		subi r30,lo8(-(portModeMeasure-48))
 1315 09f4 F040      		sbci r31,hi8(-(portModeMeasure-48))
 1316 09f6 0083      		st Z,r16
 1317 09f8 80E0      		ldi r24,lo8(.LC15)
 1318 09fa 90E0      		ldi r25,hi8(.LC15)
 1319 09fc 00C0      		rjmp .L148
 1320               	.L123:
 1321 09fe 8233      		cpi r24,lo8(50)
 1322 0a00 01F4      		brne .L125
 1323 0a02 EB2D      		mov r30,r11
 1324 0a04 F0E0      		ldi r31,lo8(0)
 1325 0a06 E050      		subi r30,lo8(-(portModeMeasure-48))
 1326 0a08 F040      		sbci r31,hi8(-(portModeMeasure-48))
 1327 0a0a F082      		st Z,r15
 1328 0a0c 80E0      		ldi r24,lo8(.LC16)
 1329 0a0e 90E0      		ldi r25,hi8(.LC16)
 1330 0a10 00C0      		rjmp .L148
 1331               	.L125:
 1332 0a12 8333      		cpi r24,lo8(51)
 1333 0a14 01F4      		brne .L126
 1334 0a16 EB2D      		mov r30,r11
 1335 0a18 F0E0      		ldi r31,lo8(0)
 1336 0a1a E050      		subi r30,lo8(-(portModeMeasure-48))
 1337 0a1c F040      		sbci r31,hi8(-(portModeMeasure-48))
 1338 0a1e E082      		st Z,r14
 1339 0a20 80E0      		ldi r24,lo8(.LC17)
 1340 0a22 90E0      		ldi r25,hi8(.LC17)
 1341 0a24 00C0      		rjmp .L148
 1342               	.L126:
 1343 0a26 8433      		cpi r24,lo8(52)
 1344 0a28 01F4      		brne .L128
 1345 0a2a EB2D      		mov r30,r11
 1346 0a2c F0E0      		ldi r31,lo8(0)
 1347 0a2e E050      		subi r30,lo8(-(portModeMeasure-48))
 1348 0a30 F040      		sbci r31,hi8(-(portModeMeasure-48))
 1349 0a32 D082      		st Z,r13
 1350 0a34 80E0      		ldi r24,lo8(.LC18)
 1351 0a36 90E0      		ldi r25,hi8(.LC18)
 1352 0a38 00C0      		rjmp .L148
 1353               	.L128:
 1354 0a3a 8533      		cpi r24,lo8(53)
 1355 0a3c 01F4      		brne .L127
 1356 0a3e EB2D      		mov r30,r11
 1357 0a40 F0E0      		ldi r31,lo8(0)
 1358 0a42 E050      		subi r30,lo8(-(portModeMeasure-48))
 1359 0a44 F040      		sbci r31,hi8(-(portModeMeasure-48))
 1360 0a46 C082      		st Z,r12
 1361 0a48 80E0      		ldi r24,lo8(.LC19)
 1362 0a4a 90E0      		ldi r25,hi8(.LC19)
 1363               	.L148:
 1364 0a4c 0E94 0000 		call uart_puts
 1365               	.L127:
 1366 0a50 0E94 0000 		call uart_getc
 1367 0a54 8B33      		cpi r24,lo8(59)
 1368 0a56 01F0      		breq .+2
 1369 0a58 00C0      		rjmp .L144
 1370 0a5a 1150      		subi r17,lo8(-(-1))
 1371 0a5c 01F0      		breq .+2
 1372 0a5e 00C0      		rjmp .L129
 1373               	.L122:
 1374 0a60 0E94 0000 		call uart_getc
 1375 0a64 8534      		cpi r24,lo8(69)
 1376 0a66 01F4      		brne .+2
 1377 0a68 00C0      		rjmp .L149
 1378               	.L130:
 1379 0a6a 8435      		cpi r24,lo8(84)
 1380 0a6c 01F4      		brne .L131
 1381 0a6e 0E94 0000 		call uart_getc
 1382 0a72 64E6      		ldi r22,lo8(100)
 1383 0a74 869F      		mul r24,r22
 1384 0a76 B001      		movw r22,r0
 1385 0a78 1124      		clr r1
 1386 0a7a 605C      		subi r22,lo8(-(-4800))
 1387 0a7c 7241      		sbci r23,hi8(-(-4800))
 1388 0a7e 80E0      		ldi r24,lo8(0)
 1389 0a80 90E0      		ldi r25,hi8(0)
 1390 0a82 0E94 0000 		call __floatunsisf
 1391 0a86 6093 0000 		sts heartBeat,r22
 1392 0a8a 7093 0000 		sts heartBeat+1,r23
 1393 0a8e 8093 0000 		sts heartBeat+2,r24
 1394 0a92 9093 0000 		sts heartBeat+3,r25
 1395 0a96 0E94 0000 		call uart_getc
 1396 0a9a 8B33      		cpi r24,59
 1397 0a9c 9105      		cpc r25,__zero_reg__
 1398 0a9e 01F4      		brne .L144
 1399               	.L131:
 1400 0aa0 0E94 0000 		call uart_getc
 1401 0aa4 8534      		cpi r24,lo8(69)
 1402 0aa6 01F0      		breq .L149
 1403               	.L132:
 1404 0aa8 8334      		cpi r24,lo8(67)
 1405 0aaa 01F4      		brne .L133
 1406 0aac 0E94 0000 		call uart_getc
 1407 0ab0 8335      		cpi r24,lo8(83)
 1408 0ab2 01F4      		brne .L134
 1409 0ab4 81E0      		ldi r24,lo8(1)
 1410 0ab6 8093 0000 		sts serialCommunikation,r24
 1411 0aba 00C0      		rjmp .L135
 1412               	.L134:
 1413 0abc 8337      		cpi r24,lo8(115)
 1414 0abe 01F4      		brne .L135
 1415 0ac0 1092 0000 		sts serialCommunikation,__zero_reg__
 1416               	.L135:
 1417 0ac4 0E94 0000 		call uart_getc
 1418 0ac8 8334      		cpi r24,lo8(67)
 1419 0aca 01F4      		brne .L136
 1420 0acc 81E0      		ldi r24,lo8(1)
 1421 0ace 8093 0000 		sts canCommunikation,r24
 1422 0ad2 00C0      		rjmp .L137
 1423               	.L136:
 1424 0ad4 8336      		cpi r24,lo8(99)
 1425 0ad6 01F4      		brne .L137
 1426 0ad8 1092 0000 		sts canCommunikation,__zero_reg__
 1427               	.L137:
 1428 0adc 0E94 0000 		call uart_getc
 1429 0ae0 8E34      		cpi r24,lo8(78)
 1430 0ae2 01F4      		brne .L138
 1431 0ae4 81E0      		ldi r24,lo8(1)
 1432 0ae6 8093 0000 		sts ethCommunikation,r24
 1433 0aea 00C0      		rjmp .L133
 1434               	.L138:
 1435 0aec 8E36      		cpi r24,lo8(110)
 1436 0aee 01F4      		brne .L133
 1437 0af0 1092 0000 		sts ethCommunikation,__zero_reg__
 1438               	.L133:
 1439 0af4 0E94 0000 		call uart_getc
 1440 0af8 8534      		cpi r24,lo8(69)
 1441 0afa 01F4      		brne .L144
 1442               	.L149:
 1443 0afc 80E0      		ldi r24,lo8(.LC14)
 1444 0afe 90E0      		ldi r25,hi8(.LC14)
 1445 0b00 0E94 0000 		call uart_puts
 1446 0b04 81E0      		ldi r24,lo8(1)
 1447 0b06 00C0      		rjmp .L116
 1448               	.L144:
 1449 0b08 80E0      		ldi r24,lo8(0)
 1450               	.L116:
 1451               	/* epilogue start */
 1452 0b0a 1F91      		pop r17
 1453 0b0c 0F91      		pop r16
 1454 0b0e FF90      		pop r15
 1455 0b10 EF90      		pop r14
 1456 0b12 DF90      		pop r13
 1457 0b14 CF90      		pop r12
 1458 0b16 BF90      		pop r11
 1459 0b18 0895      		ret
 1461               		.data
 1462               	.LC20:
 1463 009d 6869 6768 		.string	"higher set \n"
 1463      6572 2073 
 1463      6574 200A 
 1463      00
 1464               	.LC21:
 1465 00aa 6C6F 7765 		.string	"lower set \n"
 1465      7220 7365 
 1465      7420 0A00 
 1466               		.text
 1467               	.global	readUARTConfModes
 1469               	readUARTConfModes:
 1470 0b1a FF92      		push r15
 1471 0b1c 0F93      		push r16
 1472 0b1e 1F93      		push r17
 1473               	/* prologue: function */
 1474               	/* frame size = 0 */
 1475               	/* stack size = 3 */
 1476               	.L__stack_usage = 3
 1477 0b20 8834      		cpi r24,lo8(72)
 1478 0b22 01F4      		brne .L151
 1479 0b24 18E0      		ldi r17,lo8(8)
 1480 0b26 FF24      		clr r15
 1481 0b28 F394      		inc r15
 1482               	.L155:
 1483 0b2a 0E94 0000 		call uart_getc
 1484 0b2e 082F      		mov r16,r24
 1485 0b30 0E94 0000 		call uart_getc
 1486 0b34 8A33      		cpi r24,lo8(58)
 1487 0b36 01F4      		brne .L162
 1488 0b38 0E94 0000 		call uart_getc
 1489 0b3c 8133      		cpi r24,lo8(49)
 1490 0b3e 01F4      		brne .L153
 1491 0b40 E02F      		mov r30,r16
 1492 0b42 F0E0      		ldi r31,lo8(0)
 1493 0b44 E050      		subi r30,lo8(-(reactionTriggerMode-48))
 1494 0b46 F040      		sbci r31,hi8(-(reactionTriggerMode-48))
 1495 0b48 F082      		st Z,r15
 1496 0b4a 80E0      		ldi r24,lo8(.LC20)
 1497 0b4c 90E0      		ldi r25,hi8(.LC20)
 1498 0b4e 00C0      		rjmp .L165
 1499               	.L153:
 1500 0b50 8033      		cpi r24,lo8(48)
 1501 0b52 01F4      		brne .L154
 1502 0b54 E02F      		mov r30,r16
 1503 0b56 F0E0      		ldi r31,lo8(0)
 1504 0b58 E050      		subi r30,lo8(-(reactionTriggerMode-48))
 1505 0b5a F040      		sbci r31,hi8(-(reactionTriggerMode-48))
 1506 0b5c 1082      		st Z,__zero_reg__
 1507 0b5e 80E0      		ldi r24,lo8(.LC21)
 1508 0b60 90E0      		ldi r25,hi8(.LC21)
 1509               	.L165:
 1510 0b62 0E94 0000 		call uart_puts
 1511               	.L154:
 1512 0b66 0E94 0000 		call uart_getc
 1513 0b6a 8B33      		cpi r24,lo8(59)
 1514 0b6c 01F4      		brne .L162
 1515 0b6e 1150      		subi r17,lo8(-(-1))
 1516 0b70 01F4      		brne .L155
 1517               	.L151:
 1518 0b72 0E94 0000 		call uart_getc
 1519 0b76 8635      		cpi r24,lo8(86)
 1520 0b78 01F4      		brne .L156
 1521 0b7a 18E0      		ldi r17,lo8(8)
 1522               	.L157:
 1523 0b7c 0E94 0000 		call uart_getc
 1524 0b80 0E94 0000 		call uart_getc
 1525 0b84 8A33      		cpi r24,lo8(58)
 1526 0b86 01F4      		brne .L162
 1527 0b88 0E94 0000 		call uart_getc
 1528 0b8c 0E94 0000 		call uart_getc
 1529 0b90 0E94 0000 		call uart_getc
 1530 0b94 8B33      		cpi r24,lo8(59)
 1531 0b96 01F4      		brne .L162
 1532 0b98 1150      		subi r17,lo8(-(-1))
 1533 0b9a 01F4      		brne .L157
 1534               	.L156:
 1535 0b9c 0E94 0000 		call uart_getc
 1536 0ba0 8534      		cpi r24,lo8(69)
 1537 0ba2 01F4      		brne .L162
 1538 0ba4 80E0      		ldi r24,lo8(.LC14)
 1539 0ba6 90E0      		ldi r25,hi8(.LC14)
 1540 0ba8 0E94 0000 		call uart_puts
 1541 0bac 81E0      		ldi r24,lo8(1)
 1542 0bae 00C0      		rjmp .L152
 1543               	.L162:
 1544 0bb0 80E0      		ldi r24,lo8(0)
 1545               	.L152:
 1546               	/* epilogue start */
 1547 0bb2 1F91      		pop r17
 1548 0bb4 0F91      		pop r16
 1549 0bb6 FF90      		pop r15
 1550 0bb8 0895      		ret
 1552               	.global	printVreal
 1554               	printVreal:
 1555 0bba 0F93      		push r16
 1556 0bbc 1F93      		push r17
 1557 0bbe DF93      		push r29
 1558 0bc0 CF93      		push r28
 1559 0bc2 CDB7      		in r28,__SP_L__
 1560 0bc4 DEB7      		in r29,__SP_H__
 1561 0bc6 A197      		sbiw r28,33
 1562 0bc8 0FB6      		in __tmp_reg__,__SREG__
 1563 0bca F894      		cli
 1564 0bcc DEBF      		out __SP_H__,r29
 1565 0bce 0FBE      		out __SREG__,__tmp_reg__
 1566 0bd0 CDBF      		out __SP_L__,r28
 1567               	/* prologue: function */
 1568               	/* frame size = 33 */
 1569               	/* stack size = 37 */
 1570               	.L__stack_usage = 37
 1571 0bd2 182F      		mov r17,r24
 1572 0bd4 8091 0000 		lds r24,x.2064
 1573 0bd8 9091 0000 		lds r25,x.2064+1
 1574 0bdc BE01      		movw r22,r28
 1575 0bde 6F5F      		subi r22,lo8(-(1))
 1576 0be0 7F4F      		sbci r23,hi8(-(1))
 1577 0be2 4AE0      		ldi r20,lo8(10)
 1578 0be4 50E0      		ldi r21,hi8(10)
 1579 0be6 0E94 0000 		call itoa
 1580 0bea E12F      		mov r30,r17
 1581 0bec F0E0      		ldi r31,lo8(0)
 1582 0bee E050      		subi r30,lo8(-(portModeMeasure))
 1583 0bf0 F040      		sbci r31,hi8(-(portModeMeasure))
 1584 0bf2 8081      		ld r24,Z
 1585 0bf4 8330      		cpi r24,lo8(3)
 1586 0bf6 01F0      		breq .L170
 1587 0bf8 8430      		cpi r24,lo8(4)
 1588 0bfa 00F4      		brsh .L173
 1589 0bfc 8130      		cpi r24,lo8(1)
 1590 0bfe 01F0      		breq .L168
 1591 0c00 8230      		cpi r24,lo8(2)
 1592 0c02 01F4      		brne .L167
 1593 0c04 00C0      		rjmp .L176
 1594               	.L173:
 1595 0c06 8430      		cpi r24,lo8(4)
 1596 0c08 01F0      		breq .L171
 1597 0c0a 8530      		cpi r24,lo8(5)
 1598 0c0c 01F4      		brne .L167
 1599 0c0e 00C0      		rjmp .L177
 1600               	.L170:
 1601 0c10 6091 0000 		lds r22,measurement
 1602 0c14 7091 0000 		lds r23,measurement+1
 1603 0c18 8091 0000 		lds r24,measurement+2
 1604 0c1c 9091 0000 		lds r25,measurement+3
 1605 0c20 47E0      		ldi r20,lo8(7)
 1606 0c22 23E0      		ldi r18,lo8(3)
 1607 0c24 00C0      		rjmp .L174
 1608               	.L176:
 1609 0c26 0E94 0000 		call getLightIntensity
 1610 0c2a 00C0      		rjmp .L175
 1611               	.L168:
 1612 0c2c 0E94 0000 		call getTemp
 1613 0c30 00C0      		rjmp .L175
 1614               	.L171:
 1615 0c32 0E94 0000 		call getNoise
 1616 0c36 00C0      		rjmp .L175
 1617               	.L177:
 1618 0c38 0E94 0000 		call getDistance
 1619               	.L175:
 1620 0c3c 47E0      		ldi r20,lo8(7)
 1621 0c3e 21E0      		ldi r18,lo8(1)
 1622               	.L174:
 1623 0c40 00E0      		ldi r16,lo8(voltageValueBuffer)
 1624 0c42 10E0      		ldi r17,hi8(voltageValueBuffer)
 1625 0c44 0E94 0000 		call dtostrf
 1626               	.L167:
 1627 0c48 CE01      		movw r24,r28
 1628 0c4a 0196      		adiw r24,1
 1629 0c4c 0E94 0000 		call uart_puts
 1630 0c50 89E0      		ldi r24,lo8(9)
 1631 0c52 0E94 0000 		call uart_putc
 1632 0c56 80E0      		ldi r24,lo8(voltageValueBuffer+1)
 1633 0c58 90E0      		ldi r25,hi8(voltageValueBuffer+1)
 1634 0c5a 0E94 0000 		call uart_puts
 1635 0c5e 8AE0      		ldi r24,lo8(10)
 1636 0c60 0E94 0000 		call uart_putc
 1637 0c64 8091 0000 		lds r24,x.2064
 1638 0c68 9091 0000 		lds r25,x.2064+1
 1639 0c6c 0196      		adiw r24,1
 1640 0c6e 9093 0000 		sts x.2064+1,r25
 1641 0c72 8093 0000 		sts x.2064,r24
 1642               	/* epilogue start */
 1643 0c76 A196      		adiw r28,33
 1644 0c78 0FB6      		in __tmp_reg__,__SREG__
 1645 0c7a F894      		cli
 1646 0c7c DEBF      		out __SP_H__,r29
 1647 0c7e 0FBE      		out __SREG__,__tmp_reg__
 1648 0c80 CDBF      		out __SP_L__,r28
 1649 0c82 CF91      		pop r28
 1650 0c84 DF91      		pop r29
 1651 0c86 1F91      		pop r17
 1652 0c88 0F91      		pop r16
 1653 0c8a 0895      		ret
 1655               	.global	printVmeasure
 1657               	printVmeasure:
 1658 0c8c BF92      		push r11
 1659 0c8e CF92      		push r12
 1660 0c90 DF92      		push r13
 1661 0c92 EF92      		push r14
 1662 0c94 FF92      		push r15
 1663 0c96 0F93      		push r16
 1664 0c98 1F93      		push r17
 1665 0c9a DF93      		push r29
 1666 0c9c CF93      		push r28
 1667 0c9e CDB7      		in r28,__SP_L__
 1668 0ca0 DEB7      		in r29,__SP_H__
 1669 0ca2 A197      		sbiw r28,33
 1670 0ca4 0FB6      		in __tmp_reg__,__SREG__
 1671 0ca6 F894      		cli
 1672 0ca8 DEBF      		out __SP_H__,r29
 1673 0caa 0FBE      		out __SREG__,__tmp_reg__
 1674 0cac CDBF      		out __SP_L__,r28
 1675               	/* prologue: function */
 1676               	/* frame size = 33 */
 1677               	/* stack size = 42 */
 1678               	.L__stack_usage = 42
 1679 0cae B82E      		mov r11,r24
 1680 0cb0 8091 0000 		lds r24,x.2076
 1681 0cb4 9091 0000 		lds r25,x.2076+1
 1682 0cb8 6E01      		movw r12,r28
 1683 0cba 0894      		sec
 1684 0cbc C11C      		adc r12,__zero_reg__
 1685 0cbe D11C      		adc r13,__zero_reg__
 1686 0cc0 B601      		movw r22,r12
 1687 0cc2 4AE0      		ldi r20,lo8(10)
 1688 0cc4 50E0      		ldi r21,hi8(10)
 1689 0cc6 0E94 0000 		call itoa
 1690 0cca 6091 0000 		lds r22,measurement
 1691 0cce 7091 0000 		lds r23,measurement+1
 1692 0cd2 8091 0000 		lds r24,measurement+2
 1693 0cd6 9091 0000 		lds r25,measurement+3
 1694 0cda B0E0      		ldi r27,lo8(voltageValueBuffer)
 1695 0cdc EB2E      		mov r14,r27
 1696 0cde B0E0      		ldi r27,hi8(voltageValueBuffer)
 1697 0ce0 FB2E      		mov r15,r27
 1698 0ce2 47E0      		ldi r20,lo8(7)
 1699 0ce4 23E0      		ldi r18,lo8(3)
 1700 0ce6 8701      		movw r16,r14
 1701 0ce8 0E94 0000 		call dtostrf
 1702 0cec C601      		movw r24,r12
 1703 0cee 0E94 0000 		call uart_puts
 1704 0cf2 89E0      		ldi r24,lo8(9)
 1705 0cf4 0E94 0000 		call uart_putc
 1706 0cf8 C701      		movw r24,r14
 1707 0cfa 0196      		adiw r24,1
 1708 0cfc 0E94 0000 		call uart_puts
 1709 0d00 89E0      		ldi r24,lo8(9)
 1710 0d02 0E94 0000 		call uart_putc
 1711 0d06 8B2D      		mov r24,r11
 1712 0d08 805D      		subi r24,lo8(-(48))
 1713 0d0a 0E94 0000 		call uart_putc
 1714 0d0e 8AE0      		ldi r24,lo8(10)
 1715 0d10 0E94 0000 		call uart_putc
 1716 0d14 8091 0000 		lds r24,x.2076
 1717 0d18 9091 0000 		lds r25,x.2076+1
 1718 0d1c 0196      		adiw r24,1
 1719 0d1e 9093 0000 		sts x.2076+1,r25
 1720 0d22 8093 0000 		sts x.2076,r24
 1721               	/* epilogue start */
 1722 0d26 A196      		adiw r28,33
 1723 0d28 0FB6      		in __tmp_reg__,__SREG__
 1724 0d2a F894      		cli
 1725 0d2c DEBF      		out __SP_H__,r29
 1726 0d2e 0FBE      		out __SREG__,__tmp_reg__
 1727 0d30 CDBF      		out __SP_L__,r28
 1728 0d32 CF91      		pop r28
 1729 0d34 DF91      		pop r29
 1730 0d36 1F91      		pop r17
 1731 0d38 0F91      		pop r16
 1732 0d3a FF90      		pop r15
 1733 0d3c EF90      		pop r14
 1734 0d3e DF90      		pop r13
 1735 0d40 CF90      		pop r12
 1736 0d42 BF90      		pop r11
 1737 0d44 0895      		ret
 1739               		.data
 1740               	.LC22:
 1741 00b6 7265 6163 		.string	"react \n"
 1741      7420 0A00 
 1742               	.LC23:
 1743 00be 703A 6F6B 		.string	"p:ok      \n"
 1743      2020 2020 
 1743      2020 0A00 
 1744               	.LC24:
 1745 00ca 523A 6F6B 		.string	"R:ok      \n"
 1745      2020 2020 
 1745      2020 0A00 
 1746               	.LC25:
 1747 00d6 723A 6F6B 		.string	"r:ok      \n"
 1747      2020 2020 
 1747      2020 0A00 
 1748               		.text
 1749               	.global	reactOnUARTCommand
 1751               	reactOnUARTCommand:
 1752 0d46 1F93      		push r17
 1753               	/* prologue: function */
 1754               	/* frame size = 0 */
 1755               	/* stack size = 1 */
 1756               	.L__stack_usage = 1
 1757 0d48 182F      		mov r17,r24
 1758 0d4a 80E0      		ldi r24,lo8(.LC22)
 1759 0d4c 90E0      		ldi r25,hi8(.LC22)
 1760 0d4e 0E94 0000 		call uart_puts
 1761 0d52 1037      		cpi r17,lo8(112)
 1762 0d54 01F0      		breq .L183
 1763 0d56 1137      		cpi r17,lo8(113)
 1764 0d58 00F4      		brsh .L186
 1765 0d5a 1235      		cpi r17,lo8(82)
 1766 0d5c 01F0      		breq .L181
 1767 0d5e 1336      		cpi r17,lo8(99)
 1768 0d60 01F0      		breq .+2
 1769 0d62 00C0      		rjmp .L201
 1770 0d64 00C0      		rjmp .L204
 1771               	.L186:
 1772 0d66 1237      		cpi r17,lo8(114)
 1773 0d68 01F0      		breq .L184
 1774 0d6a 1337      		cpi r17,lo8(115)
 1775 0d6c 01F0      		breq .+2
 1776 0d6e 00C0      		rjmp .L201
 1777 0d70 83B7      		in r24,83-32
 1778 0d72 817F      		andi r24,lo8(-15)
 1779 0d74 83BF      		out 83-32,r24
 1780 0d76 83B7      		in r24,83-32
 1781 0d78 8160      		ori r24,lo8(1)
 1782 0d7a 83BF      		out 83-32,r24
 1783               	/* #APP */
 1784               	 ;  667 "mBoard.c" 1
 1785 0d7c 8895      		sleep
 1786               		
 1787               	 ;  0 "" 2
 1788               	/* #NOAPP */
 1789 0d7e 83B7      		in r24,83-32
 1790 0d80 8E7F      		andi r24,lo8(-2)
 1791 0d82 83BF      		out 83-32,r24
 1792 0d84 00C0      		rjmp .L202
 1793               	.L183:
 1794 0d86 80E0      		ldi r24,lo8(.LC23)
 1795 0d88 90E0      		ldi r25,hi8(.LC23)
 1796               	.L203:
 1797 0d8a 0E94 0000 		call uart_puts
 1798               	.L202:
 1799 0d8e 81E0      		ldi r24,lo8(1)
 1800 0d90 00C0      		rjmp .L187
 1801               	.L181:
 1802 0d92 0E94 0000 		call uart_getc
 1803 0d96 90E0      		ldi r25,lo8(0)
 1804 0d98 C097      		sbiw r24,48
 1805 0d9a 8230      		cpi r24,2
 1806 0d9c 9105      		cpc r25,__zero_reg__
 1807 0d9e 01F0      		breq .L189
 1808 0da0 8330      		cpi r24,3
 1809 0da2 9105      		cpc r25,__zero_reg__
 1810 0da4 01F0      		breq .L190
 1811 0da6 8130      		cpi r24,1
 1812 0da8 9105      		cpc r25,__zero_reg__
 1813 0daa 01F4      		brne .L201
 1814 0dac 419A      		sbi 40-32,1
 1815 0dae 00C0      		rjmp .L191
 1816               	.L189:
 1817 0db0 429A      		sbi 40-32,2
 1818 0db2 00C0      		rjmp .L191
 1819               	.L190:
 1820 0db4 439A      		sbi 40-32,3
 1821 0db6 00C0      		rjmp .L191
 1822               	.L184:
 1823 0db8 0E94 0000 		call uart_getc
 1824 0dbc 90E0      		ldi r25,lo8(0)
 1825 0dbe C097      		sbiw r24,48
 1826 0dc0 8230      		cpi r24,2
 1827 0dc2 9105      		cpc r25,__zero_reg__
 1828 0dc4 01F0      		breq .L193
 1829 0dc6 8330      		cpi r24,3
 1830 0dc8 9105      		cpc r25,__zero_reg__
 1831 0dca 01F0      		breq .L194
 1832 0dcc 8130      		cpi r24,1
 1833 0dce 9105      		cpc r25,__zero_reg__
 1834 0dd0 01F4      		brne .L201
 1835 0dd2 4198      		cbi 40-32,1
 1836 0dd4 00C0      		rjmp .L195
 1837               	.L193:
 1838 0dd6 4298      		cbi 40-32,2
 1839 0dd8 00C0      		rjmp .L195
 1840               	.L194:
 1841 0dda 4398      		cbi 40-32,3
 1842 0ddc 00C0      		rjmp .L195
 1843               	.L204:
 1844 0dde 0E94 0000 		call uart_getc
 1845 0de2 0E94 0000 		call readUARTConfig
 1846 0de6 982F      		mov r25,r24
 1847 0de8 00C0      		rjmp .L180
 1848               	.L201:
 1849 0dea 90E0      		ldi r25,lo8(0)
 1850               	.L180:
 1851 0dec 81E0      		ldi r24,lo8(1)
 1852 0dee 9130      		cpi r25,lo8(1)
 1853 0df0 01F0      		breq .L187
 1854 0df2 80E0      		ldi r24,lo8(0)
 1855               	.L187:
 1856               	/* epilogue start */
 1857 0df4 1F91      		pop r17
 1858 0df6 0895      		ret
 1859               	.L191:
 1860 0df8 80E0      		ldi r24,lo8(.LC24)
 1861 0dfa 90E0      		ldi r25,hi8(.LC24)
 1862 0dfc 00C0      		rjmp .L203
 1863               	.L195:
 1864 0dfe 80E0      		ldi r24,lo8(.LC25)
 1865 0e00 90E0      		ldi r25,hi8(.LC25)
 1866 0e02 00C0      		rjmp .L203
 1868               		.data
 1869               	.LC26:
 1870 00e2 7069 6E67 		.string	"ping by can \n"
 1870      2062 7920 
 1870      6361 6E20 
 1870      0A00 
 1871               	.LC27:
 1872 00f0 7265 6C61 		.string	"relais by can \n"
 1872      6973 2062 
 1872      7920 6361 
 1872      6E20 0A00 
 1873               		.text
 1874               	.global	reactOnCANCommand
 1876               	reactOnCANCommand:
 1877 0e04 0F93      		push r16
 1878 0e06 1F93      		push r17
 1879 0e08 DF93      		push r29
 1880 0e0a CF93      		push r28
 1881 0e0c CDB7      		in r28,__SP_L__
 1882 0e0e DEB7      		in r29,__SP_H__
 1883 0e10 2D97      		sbiw r28,13
 1884 0e12 0FB6      		in __tmp_reg__,__SREG__
 1885 0e14 F894      		cli
 1886 0e16 DEBF      		out __SP_H__,r29
 1887 0e18 0FBE      		out __SREG__,__tmp_reg__
 1888 0e1a CDBF      		out __SP_L__,r28
 1889               	/* prologue: function */
 1890               	/* frame size = 13 */
 1891               	/* stack size = 17 */
 1892               	.L__stack_usage = 17
 1893 0e1c FC01      		movw r30,r24
 1894 0e1e 8181      		ldd r24,Z+1
 1895 0e20 9081      		ld r25,Z
 1896 0e22 9037      		cpi r25,lo8(112)
 1897 0e24 01F0      		breq .L208
 1898 0e26 9137      		cpi r25,lo8(113)
 1899 0e28 00F4      		brsh .L211
 1900 0e2a 9235      		cpi r25,lo8(82)
 1901 0e2c 01F0      		breq .+2
 1902 0e2e 00C0      		rjmp .L219
 1903 0e30 00C0      		rjmp .L225
 1904               	.L211:
 1905 0e32 9237      		cpi r25,lo8(114)
 1906 0e34 01F4      		brne .+2
 1907 0e36 00C0      		rjmp .L209
 1908 0e38 9337      		cpi r25,lo8(115)
 1909 0e3a 01F0      		breq .+2
 1910 0e3c 00C0      		rjmp .L219
 1911 0e3e 83B7      		in r24,83-32
 1912 0e40 817F      		andi r24,lo8(-15)
 1913 0e42 83BF      		out 83-32,r24
 1914 0e44 83B7      		in r24,83-32
 1915 0e46 8160      		ori r24,lo8(1)
 1916 0e48 83BF      		out 83-32,r24
 1917               	/* #APP */
 1918               	 ;  716 "mBoard.c" 1
 1919 0e4a 8895      		sleep
 1920               		
 1921               	 ;  0 "" 2
 1922               	/* #NOAPP */
 1923 0e4c 83B7      		in r24,83-32
 1924 0e4e 8E7F      		andi r24,lo8(-2)
 1925 0e50 83BF      		out 83-32,r24
 1926 0e52 00C0      		rjmp .L221
 1927               	.L208:
 1928 0e54 8E01      		movw r16,r28
 1929 0e56 0F5F      		subi r16,lo8(-(1))
 1930 0e58 1F4F      		sbci r17,hi8(-(1))
 1931 0e5a C801      		movw r24,r16
 1932 0e5c 6AE0      		ldi r22,lo8(10)
 1933 0e5e 0E94 0000 		call generateCANMsg
 1934 0e62 479A      		sbi 40-32,7
 1935 0e64 80E0      		ldi r24,lo8(.LC26)
 1936 0e66 90E0      		ldi r25,hi8(.LC26)
 1937 0e68 0E94 0000 		call uart_puts
 1938 0e6c 00C0      		rjmp .L224
 1939               	.L225:
 1940 0e6e 90E0      		ldi r25,lo8(0)
 1941 0e70 C097      		sbiw r24,48
 1942 0e72 8230      		cpi r24,2
 1943 0e74 9105      		cpc r25,__zero_reg__
 1944 0e76 01F0      		breq .L214
 1945 0e78 8330      		cpi r24,3
 1946 0e7a 9105      		cpc r25,__zero_reg__
 1947 0e7c 01F0      		breq .L215
 1948 0e7e 8130      		cpi r24,1
 1949 0e80 9105      		cpc r25,__zero_reg__
 1950 0e82 01F4      		brne .L212
 1951 0e84 419A      		sbi 40-32,1
 1952 0e86 8E01      		movw r16,r28
 1953 0e88 0F5F      		subi r16,lo8(-(1))
 1954 0e8a 1F4F      		sbci r17,hi8(-(1))
 1955 0e8c C801      		movw r24,r16
 1956 0e8e 6BE0      		ldi r22,lo8(11)
 1957 0e90 00C0      		rjmp .L222
 1958               	.L214:
 1959 0e92 429A      		sbi 40-32,2
 1960 0e94 8E01      		movw r16,r28
 1961 0e96 0F5F      		subi r16,lo8(-(1))
 1962 0e98 1F4F      		sbci r17,hi8(-(1))
 1963 0e9a C801      		movw r24,r16
 1964 0e9c 6CE0      		ldi r22,lo8(12)
 1965 0e9e 00C0      		rjmp .L222
 1966               	.L215:
 1967 0ea0 439A      		sbi 40-32,3
 1968 0ea2 8E01      		movw r16,r28
 1969 0ea4 0F5F      		subi r16,lo8(-(1))
 1970 0ea6 1F4F      		sbci r17,hi8(-(1))
 1971 0ea8 C801      		movw r24,r16
 1972 0eaa 6DE0      		ldi r22,lo8(13)
 1973               	.L222:
 1974 0eac 0E94 0000 		call generateCANMsg
 1975 0eb0 C801      		movw r24,r16
 1976 0eb2 0E94 0000 		call mcp2515_send_extmessage
 1977               	.L212:
 1978 0eb6 80E0      		ldi r24,lo8(.LC27)
 1979 0eb8 90E0      		ldi r25,hi8(.LC27)
 1980 0eba 0E94 0000 		call uart_puts
 1981 0ebe 00C0      		rjmp .L221
 1982               	.L209:
 1983 0ec0 90E0      		ldi r25,lo8(0)
 1984 0ec2 C097      		sbiw r24,48
 1985 0ec4 8230      		cpi r24,2
 1986 0ec6 9105      		cpc r25,__zero_reg__
 1987 0ec8 01F0      		breq .L217
 1988 0eca 8330      		cpi r24,3
 1989 0ecc 9105      		cpc r25,__zero_reg__
 1990 0ece 01F0      		breq .L218
 1991 0ed0 8130      		cpi r24,1
 1992 0ed2 9105      		cpc r25,__zero_reg__
 1993 0ed4 01F4      		brne .L221
 1994 0ed6 4198      		cbi 40-32,1
 1995 0ed8 00C0      		rjmp .L223
 1996               	.L217:
 1997 0eda 4298      		cbi 40-32,2
 1998 0edc 00C0      		rjmp .L223
 1999               	.L218:
 2000 0ede 4398      		cbi 40-32,3
 2001               	.L223:
 2002 0ee0 8E01      		movw r16,r28
 2003 0ee2 0F5F      		subi r16,lo8(-(1))
 2004 0ee4 1F4F      		sbci r17,hi8(-(1))
 2005 0ee6 C801      		movw r24,r16
 2006 0ee8 6AE0      		ldi r22,lo8(10)
 2007 0eea 0E94 0000 		call generateCANMsg
 2008               	.L224:
 2009 0eee C801      		movw r24,r16
 2010 0ef0 0E94 0000 		call mcp2515_send_extmessage
 2011 0ef4 00C0      		rjmp .L221
 2012               	.L219:
 2013 0ef6 80E0      		ldi r24,lo8(0)
 2014 0ef8 00C0      		rjmp .L206
 2015               	.L221:
 2016 0efa 81E0      		ldi r24,lo8(1)
 2017               	.L206:
 2018               	/* epilogue start */
 2019 0efc 2D96      		adiw r28,13
 2020 0efe 0FB6      		in __tmp_reg__,__SREG__
 2021 0f00 F894      		cli
 2022 0f02 DEBF      		out __SP_H__,r29
 2023 0f04 0FBE      		out __SREG__,__tmp_reg__
 2024 0f06 CDBF      		out __SP_L__,r28
 2025 0f08 CF91      		pop r28
 2026 0f0a DF91      		pop r29
 2027 0f0c 1F91      		pop r17
 2028 0f0e 0F91      		pop r16
 2029 0f10 0895      		ret
 2031               		.data
 2032               	.LC28:
 2033 0100 4665 686C 		.string	"Fehler: kann MCP2515 nicht ansprechen!\n\n"
 2033      6572 3A20 
 2033      6B61 6E6E 
 2033      204D 4350 
 2033      3235 3135 
 2034               	.LC29:
 2035 0129 4D43 5032 		.string	"MCP2515 is aktiv\n\n"
 2035      3531 3520 
 2035      6973 2061 
 2035      6B74 6976 
 2035      0A0A 00
 2036               		.text
 2037               	.global	can_init
 2039               	can_init:
 2040               	/* prologue: function */
 2041               	/* frame size = 0 */
 2042               	/* stack size = 0 */
 2043               	.L__stack_usage = 0
 2044 0f12 0E94 0000 		call mcp2515_init
 2045 0f16 8823      		tst r24
 2046 0f18 01F4      		brne .L227
 2047 0f1a 80E0      		ldi r24,lo8(.LC28)
 2048 0f1c 90E0      		ldi r25,hi8(.LC28)
 2049 0f1e 00C0      		rjmp .L229
 2050               	.L227:
 2051 0f20 80E0      		ldi r24,lo8(.LC29)
 2052 0f22 90E0      		ldi r25,hi8(.LC29)
 2053               	.L229:
 2054 0f24 0E94 0000 		call uart_puts
 2055 0f28 0895      		ret
 2057               	.global	startTimerLed
 2059               	startTimerLed:
 2060               	/* prologue: function */
 2061               	/* frame size = 0 */
 2062               	/* stack size = 0 */
 2063               	.L__stack_usage = 0
 2064 0f2a 85B5      		in r24,69-32
 2065 0f2c 8360      		ori r24,lo8(3)
 2066 0f2e 85BD      		out 69-32,r24
 2067               	/* epilogue start */
 2068 0f30 0895      		ret
 2070               	.global	checkLedTime
 2072               	checkLedTime:
 2073               	/* prologue: function */
 2074               	/* frame size = 0 */
 2075               	/* stack size = 0 */
 2076               	.L__stack_usage = 0
 2077 0f32 80E0      		ldi r24,lo8(0)
 2078               	/* epilogue start */
 2079 0f34 0895      		ret
 2081               		.data
 2082               	.LC30:
 2083 013c 4869 2068 		.string	"Hi have fun using the System  !! \n"
 2083      6176 6520 
 2083      6675 6E20 
 2083      7573 696E 
 2083      6720 7468 
 2084               	.LC31:
 2085 015f 5379 7374 		.string	"Systems running in general mode  !! \n"
 2085      656D 7320 
 2085      7275 6E6E 
 2085      696E 6720 
 2085      696E 2067 
 2086               	.LC32:
 2087 0185 4C3A 6F6B 		.string	"L:ok \n"
 2087      200A 00
 2088               	.LC33:
 2089 018c 4C3A 616C 		.string	"L:alert\n"
 2089      6572 740A 
 2089      00
 2090               	.LC34:
 2091 0195 2063 6F6D 		.string	" command UART "
 2091      6D61 6E64 
 2091      2055 4152 
 2091      5420 00
 2092               	.LC35:
 2093 01a4 2072 6561 		.string	" read incomplete !!!\n"
 2093      6420 696E 
 2093      636F 6D70 
 2093      6C65 7465 
 2093      2021 2121 
 2094               	.LC36:
 2095 01ba 2063 6F6D 		.string	" command CAN "
 2095      6D61 6E64 
 2095      2043 414E 
 2095      2000 
 2096               		.text
 2097               	.global	main
 2099               	main:
 2100 0f36 2F92      		push r2
 2101 0f38 3F92      		push r3
 2102 0f3a 4F92      		push r4
 2103 0f3c 5F92      		push r5
 2104 0f3e 6F92      		push r6
 2105 0f40 7F92      		push r7
 2106 0f42 8F92      		push r8
 2107 0f44 9F92      		push r9
 2108 0f46 AF92      		push r10
 2109 0f48 BF92      		push r11
 2110 0f4a CF92      		push r12
 2111 0f4c DF92      		push r13
 2112 0f4e EF92      		push r14
 2113 0f50 FF92      		push r15
 2114 0f52 0F93      		push r16
 2115 0f54 1F93      		push r17
 2116 0f56 DF93      		push r29
 2117 0f58 CF93      		push r28
 2118 0f5a CDB7      		in r28,__SP_L__
 2119 0f5c DEB7      		in r29,__SP_H__
 2120 0f5e 6B97      		sbiw r28,27
 2121 0f60 0FB6      		in __tmp_reg__,__SREG__
 2122 0f62 F894      		cli
 2123 0f64 DEBF      		out __SP_H__,r29
 2124 0f66 0FBE      		out __SREG__,__tmp_reg__
 2125 0f68 CDBF      		out __SP_L__,r28
 2126               	/* prologue: function */
 2127               	/* frame size = 27 */
 2128               	/* stack size = 45 */
 2129               	.L__stack_usage = 45
 2130               	/* #APP */
 2131               	 ;  806 "mBoard.c" 1
 2132 0f6a 7894      		sei
 2133               	 ;  0 "" 2
 2134               	/* #NOAPP */
 2135 0f6c 0E94 0000 		call initPorts
 2136 0f70 0E94 0000 		call initVoltageMultiplikator
 2137 0f74 87E6      		ldi r24,lo8(103)
 2138 0f76 90E0      		ldi r25,hi8(103)
 2139 0f78 0E94 0000 		call uart_init
 2140 0f7c 80E0      		ldi r24,lo8(.LC30)
 2141 0f7e 90E0      		ldi r25,hi8(.LC30)
 2142 0f80 0E94 0000 		call uart_puts
 2143 0f84 80E0      		ldi r24,lo8(.LC31)
 2144 0f86 90E0      		ldi r25,hi8(.LC31)
 2145 0f88 0E94 0000 		call uart_puts
 2146 0f8c 0E94 0000 		call can_init
 2147 0f90 409A      		sbi 40-32,0
 2148 0f92 479A      		sbi 40-32,7
 2149 0f94 4798      		cbi 40-32,7
 2150 0f96 1092 8500 		sts 132+1,__zero_reg__
 2151 0f9a 1092 8400 		sts 132,__zero_reg__
 2152 0f9e 8091 8100 		lds r24,129
 2153 0fa2 8560      		ori r24,lo8(5)
 2154 0fa4 8093 8100 		sts 129,r24
 2155 0fa8 80E0      		ldi r24,lo8(0x43fa0000)
 2156 0faa 90E0      		ldi r25,hi8(0x43fa0000)
 2157 0fac AAEF      		ldi r26,hlo8(0x43fa0000)
 2158 0fae B3E4      		ldi r27,hhi8(0x43fa0000)
 2159 0fb0 8093 0000 		sts heartBeat,r24
 2160 0fb4 9093 0000 		sts heartBeat+1,r25
 2161 0fb8 A093 0000 		sts heartBeat+2,r26
 2162 0fbc B093 0000 		sts heartBeat+3,r27
 2163 0fc0 00E0      		ldi r16,lo8(0)
 2164 0fc2 10E0      		ldi r17,hi8(0)
 2165 0fc4 EE24      		clr r14
 2166 0fc6 FF24      		clr r15
 2167 0fc8 0F2E      		mov __tmp_reg__,r31
 2168 0fca F0E0      		ldi r31,lo8(0x0)
 2169 0fcc 2F2E      		mov r2,r31
 2170 0fce F0E0      		ldi r31,hi8(0x0)
 2171 0fd0 3F2E      		mov r3,r31
 2172 0fd2 F0E0      		ldi r31,hlo8(0x0)
 2173 0fd4 4F2E      		mov r4,r31
 2174 0fd6 F0E0      		ldi r31,hhi8(0x0)
 2175 0fd8 5F2E      		mov r5,r31
 2176 0fda F02D      		mov r31,__tmp_reg__
 2177 0fdc 5E01      		movw r10,r28
 2178 0fde 0894      		sec
 2179 0fe0 A11C      		adc r10,__zero_reg__
 2180 0fe2 B11C      		adc r11,__zero_reg__
 2181               	.L251:
 2182 0fe4 88B1      		in r24,40-32
 2183 0fe6 21E0      		ldi r18,lo8(1)
 2184 0fe8 8227      		eor r24,r18
 2185 0fea 88B9      		out 40-32,r24
 2186 0fec 8F2D      		mov r24,r15
 2187 0fee 8830      		cpi r24,lo8(8)
 2188 0ff0 01F4      		brne .L233
 2189 0ff2 FF24      		clr r15
 2190               	.L233:
 2191 0ff4 2092 0000 		sts loopCounter,r2
 2192 0ff8 3092 0000 		sts loopCounter+1,r3
 2193 0ffc 4092 0000 		sts loopCounter+2,r4
 2194 1000 5092 0000 		sts loopCounter+3,r5
 2195               	.L244:
 2196 1004 6091 0000 		lds r22,loopCounter
 2197 1008 7091 0000 		lds r23,loopCounter+1
 2198 100c 8091 0000 		lds r24,loopCounter+2
 2199 1010 9091 0000 		lds r25,loopCounter+3
 2200 1014 2091 0000 		lds r18,heartBeat
 2201 1018 3091 0000 		lds r19,heartBeat+1
 2202 101c 4091 0000 		lds r20,heartBeat+2
 2203 1020 5091 0000 		lds r21,heartBeat+3
 2204 1024 0E94 0000 		call __gtsf2
 2205 1028 1816      		cp __zero_reg__,r24
 2206 102a 04F4      		brge .+2
 2207 102c 00C0      		rjmp .L234
 2208 102e 9E2D      		mov r25,r14
 2209 1030 9830      		cpi r25,lo8(8)
 2210 1032 01F4      		brne .L235
 2211 1034 EE24      		clr r14
 2212               	.L235:
 2213 1036 CE2C      		mov r12,r14
 2214 1038 DD24      		clr r13
 2215 103a F601      		movw r30,r12
 2216 103c E050      		subi r30,lo8(-(measuringVoltageFaktor))
 2217 103e F040      		sbci r31,hi8(-(measuringVoltageFaktor))
 2218 1040 8081      		ld r24,Z
 2219 1042 8823      		tst r24
 2220 1044 01F4      		brne .+2
 2221 1046 00C0      		rjmp .L236
 2222 1048 8E2D      		mov r24,r14
 2223 104a 0E94 0000 		call measureAndScale
 2224 104e F601      		movw r30,r12
 2225 1050 EE0F      		lsl r30
 2226 1052 FF1F      		rol r31
 2227 1054 EE0F      		lsl r30
 2228 1056 FF1F      		rol r31
 2229 1058 E050      		subi r30,lo8(-(reactionValues))
 2230 105a F040      		sbci r31,hi8(-(reactionValues))
 2231 105c 8081      		ld r24,Z
 2232 105e 9181      		ldd r25,Z+1
 2233 1060 A281      		ldd r26,Z+2
 2234 1062 B381      		ldd r27,Z+3
 2235 1064 843F      		cpi r24,lo8(500)
 2236 1066 21E0      		ldi r18,hi8(500)
 2237 1068 9207      		cpc r25,r18
 2238 106a 20E0      		ldi r18,hlo8(500)
 2239 106c A207      		cpc r26,r18
 2240 106e 20E0      		ldi r18,hhi8(500)
 2241 1070 B207      		cpc r27,r18
 2242 1072 01F0      		breq .L237
 2243 1074 8E2D      		mov r24,r14
 2244 1076 0E94 0000 		call reactOnMeasure
 2245               	.L237:
 2246 107a F601      		movw r30,r12
 2247 107c E050      		subi r30,lo8(-(portModeMeasure))
 2248 107e F040      		sbci r31,hi8(-(portModeMeasure))
 2249 1080 8081      		ld r24,Z
 2250 1082 8630      		cpi r24,lo8(6)
 2251 1084 01F0      		breq .+2
 2252 1086 00C0      		rjmp .L236
 2253 1088 6090 0000 		lds r6,ledLastMeasure
 2254 108c 7090 0000 		lds r7,ledLastMeasure+1
 2255 1090 8090 0000 		lds r8,ledLastMeasure+2
 2256 1094 9090 0000 		lds r9,ledLastMeasure+3
 2257 1098 C401      		movw r24,r8
 2258 109a B301      		movw r22,r6
 2259 109c 20E0      		ldi r18,lo8(0xbf800000)
 2260 109e 30E0      		ldi r19,hi8(0xbf800000)
 2261 10a0 40E8      		ldi r20,hlo8(0xbf800000)
 2262 10a2 5FEB      		ldi r21,hhi8(0xbf800000)
 2263 10a4 0E94 0000 		call __eqsf2
 2264 10a8 8823      		tst r24
 2265 10aa 01F0      		breq .L242
 2266               	.L255:
 2267 10ac 6091 0000 		lds r22,measurement
 2268 10b0 7091 0000 		lds r23,measurement+1
 2269 10b4 8091 0000 		lds r24,measurement+2
 2270 10b8 9091 0000 		lds r25,measurement+3
 2271 10bc 20E0      		ldi r18,lo8(0x42c80000)
 2272 10be 30E0      		ldi r19,hi8(0x42c80000)
 2273 10c0 48EC      		ldi r20,hlo8(0x42c80000)
 2274 10c2 52E4      		ldi r21,hhi8(0x42c80000)
 2275 10c4 0E94 0000 		call __mulsf3
 2276 10c8 0E94 0000 		call __fixsfsi
 2277 10cc 6B01      		movw r12,r22
 2278 10ce C401      		movw r24,r8
 2279 10d0 B301      		movw r22,r6
 2280 10d2 20E0      		ldi r18,lo8(0x42c80000)
 2281 10d4 30E0      		ldi r19,hi8(0x42c80000)
 2282 10d6 48EC      		ldi r20,hlo8(0x42c80000)
 2283 10d8 52E4      		ldi r21,hhi8(0x42c80000)
 2284 10da 0E94 0000 		call __mulsf3
 2285 10de 0E94 0000 		call __fixsfsi
 2286 10e2 C61A      		sub r12,r22
 2287 10e4 D70A      		sbc r13,r23
 2288 10e6 D7FE      		sbrs r13,7
 2289 10e8 00C0      		rjmp .L241
 2290 10ea D094      		com r13
 2291 10ec C194      		neg r12
 2292 10ee D108      		sbc r13,__zero_reg__
 2293 10f0 D394      		inc r13
 2294               	.L241:
 2295 10f2 85E0      		ldi r24,lo8(5)
 2296 10f4 C816      		cp r12,r24
 2297 10f6 D104      		cpc r13,__zero_reg__
 2298 10f8 04F0      		brlt .L240
 2299 10fa 80E0      		ldi r24,lo8(.LC32)
 2300 10fc 90E0      		ldi r25,hi8(.LC32)
 2301 10fe 0E94 0000 		call uart_puts
 2302 1102 00E0      		ldi r16,lo8(0)
 2303 1104 10E0      		ldi r17,hi8(0)
 2304 1106 00C0      		rjmp .L242
 2305               	.L240:
 2306 1108 97E0      		ldi r25,hi8(1801)
 2307 110a 0930      		cpi r16,lo8(1801)
 2308 110c 1907      		cpc r17,r25
 2309 110e 04F0      		brlt .L243
 2310 1110 80E0      		ldi r24,lo8(.LC33)
 2311 1112 90E0      		ldi r25,hi8(.LC33)
 2312 1114 0E94 0000 		call uart_puts
 2313 1118 00E0      		ldi r16,lo8(0)
 2314 111a 10E0      		ldi r17,hi8(0)
 2315               	.L243:
 2316 111c 0F5F      		subi r16,lo8(-(1))
 2317 111e 1F4F      		sbci r17,hi8(-(1))
 2318               	.L242:
 2319 1120 8091 0000 		lds r24,measurement
 2320 1124 9091 0000 		lds r25,measurement+1
 2321 1128 A091 0000 		lds r26,measurement+2
 2322 112c B091 0000 		lds r27,measurement+3
 2323 1130 8093 0000 		sts ledLastMeasure,r24
 2324 1134 9093 0000 		sts ledLastMeasure+1,r25
 2325 1138 A093 0000 		sts ledLastMeasure+2,r26
 2326 113c B093 0000 		sts ledLastMeasure+3,r27
 2327               	.L236:
 2328 1140 E394      		inc r14
 2329 1142 6091 0000 		lds r22,loopCounter
 2330 1146 7091 0000 		lds r23,loopCounter+1
 2331 114a 8091 0000 		lds r24,loopCounter+2
 2332 114e 9091 0000 		lds r25,loopCounter+3
 2333 1152 20E0      		ldi r18,lo8(0x3f800000)
 2334 1154 30E0      		ldi r19,hi8(0x3f800000)
 2335 1156 40E8      		ldi r20,hlo8(0x3f800000)
 2336 1158 5FE3      		ldi r21,hhi8(0x3f800000)
 2337 115a 0E94 0000 		call __addsf3
 2338 115e 6093 0000 		sts loopCounter,r22
 2339 1162 7093 0000 		sts loopCounter+1,r23
 2340 1166 8093 0000 		sts loopCounter+2,r24
 2341 116a 9093 0000 		sts loopCounter+3,r25
 2342 116e 00C0      		rjmp .L244
 2343               	.L234:
 2344 1170 8091 0000 		lds r24,serialCommunikation
 2345 1174 8823      		tst r24
 2346 1176 01F0      		breq .L245
 2347 1178 0E94 0000 		call uart_getc
 2348 117c 282F      		mov r18,r24
 2349 117e 8336      		cpi r24,lo8(99)
 2350 1180 01F0      		breq .L246
 2351 1182 8037      		cpi r24,lo8(112)
 2352 1184 01F0      		breq .L246
 2353 1186 8337      		cpi r24,lo8(115)
 2354 1188 01F0      		breq .L246
 2355 118a 8235      		cpi r24,lo8(82)
 2356 118c 01F0      		breq .L246
 2357 118e 8237      		cpi r24,lo8(114)
 2358 1190 01F4      		brne .L247
 2359               	.L246:
 2360 1192 822F      		mov r24,r18
 2361 1194 2B8F      		std Y+27,r18
 2362 1196 0E94 0000 		call reactOnUARTCommand
 2363 119a 8823      		tst r24
 2364 119c 01F4      		brne .L247
 2365 119e 80E0      		ldi r24,lo8(.LC34)
 2366 11a0 90E0      		ldi r25,hi8(.LC34)
 2367 11a2 0E94 0000 		call uart_puts
 2368 11a6 2B8D      		ldd r18,Y+27
 2369 11a8 822F      		mov r24,r18
 2370 11aa 0E94 0000 		call uart_putc
 2371 11ae 80E0      		ldi r24,lo8(.LC35)
 2372 11b0 90E0      		ldi r25,hi8(.LC35)
 2373 11b2 0E94 0000 		call uart_puts
 2374 11b6 479A      		sbi 40-32,7
 2375               	.L247:
 2376 11b8 EF2D      		mov r30,r15
 2377 11ba F0E0      		ldi r31,lo8(0)
 2378 11bc E050      		subi r30,lo8(-(measuringVoltageFaktor))
 2379 11be F040      		sbci r31,hi8(-(measuringVoltageFaktor))
 2380 11c0 8081      		ld r24,Z
 2381 11c2 8823      		tst r24
 2382 11c4 01F0      		breq .L245
 2383 11c6 8F2D      		mov r24,r15
 2384 11c8 0E94 0000 		call measureAndScale
 2385 11cc 8F2D      		mov r24,r15
 2386 11ce 0E94 0000 		call reactOnMeasure
 2387 11d2 8F2D      		mov r24,r15
 2388 11d4 0E94 0000 		call sendMeasureUART
 2389               	.L245:
 2390 11d8 8091 0000 		lds r24,canCommunikation
 2391 11dc 8823      		tst r24
 2392 11de 01F0      		breq .L248
 2393 11e0 CE01      		movw r24,r28
 2394 11e2 0E96      		adiw r24,14
 2395 11e4 0E94 0000 		call mcp2515_get_extmessage
 2396 11e8 8823      		tst r24
 2397 11ea 01F0      		breq .L249
 2398 11ec 8D89      		ldd r24,Y+21
 2399 11ee 8433      		cpi r24,lo8(52)
 2400 11f0 01F4      		brne .L249
 2401 11f2 8B89      		ldd r24,Y+19
 2402 11f4 8037      		cpi r24,lo8(112)
 2403 11f6 01F0      		breq .L250
 2404 11f8 8336      		cpi r24,lo8(99)
 2405 11fa 01F0      		breq .L250
 2406 11fc 8337      		cpi r24,lo8(115)
 2407 11fe 01F0      		breq .L250
 2408 1200 8235      		cpi r24,lo8(82)
 2409 1202 01F0      		breq .L250
 2410 1204 8237      		cpi r24,lo8(114)
 2411 1206 01F4      		brne .L249
 2412               	.L250:
 2413 1208 CE01      		movw r24,r28
 2414 120a 4396      		adiw r24,19
 2415 120c 0E94 0000 		call reactOnCANCommand
 2416 1210 8823      		tst r24
 2417 1212 01F4      		brne .L249
 2418 1214 80E0      		ldi r24,lo8(.LC36)
 2419 1216 90E0      		ldi r25,hi8(.LC36)
 2420 1218 0E94 0000 		call uart_puts
 2421 121c 8B89      		ldd r24,Y+19
 2422 121e 0E94 0000 		call uart_putc
 2423 1222 80E0      		ldi r24,lo8(.LC35)
 2424 1224 90E0      		ldi r25,hi8(.LC35)
 2425 1226 0E94 0000 		call uart_puts
 2426               	.L249:
 2427 122a EF2D      		mov r30,r15
 2428 122c F0E0      		ldi r31,lo8(0)
 2429 122e E050      		subi r30,lo8(-(measuringVoltageFaktor))
 2430 1230 F040      		sbci r31,hi8(-(measuringVoltageFaktor))
 2431 1232 8081      		ld r24,Z
 2432 1234 8823      		tst r24
 2433 1236 01F0      		breq .L248
 2434 1238 8F2D      		mov r24,r15
 2435 123a 0E94 0000 		call measureAndScale
 2436 123e 8F2D      		mov r24,r15
 2437 1240 0E94 0000 		call reactOnMeasure
 2438 1244 C501      		movw r24,r10
 2439 1246 6F2D      		mov r22,r15
 2440 1248 0E94 0000 		call generateCANMsg
 2441 124c C501      		movw r24,r10
 2442 124e 0E94 0000 		call mcp2515_send_extmessage
 2443               	.L248:
 2444 1252 F394      		inc r15
 2445 1254 4798      		cbi 40-32,7
 2446 1256 00C0      		rjmp .L251
 2448               	.global	ledTick
 2449               		.data
 2452               	ledTick:
 2453 01c8 96        		.byte	-106
 2454               	.global	serialCommunikation
 2457               	serialCommunikation:
 2458 01c9 01        		.byte	1
 2459               	.global	canCommunikation
 2462               	canCommunikation:
 2463 01ca 01        		.byte	1
 2464               	.global	ethCommunikation
 2465               	.global	ethCommunikation
 2466               		.section .bss
 2469               	ethCommunikation:
 2470 0000 00        		.skip 1,0
 2471               	.global	portModeMeasure
 2472               		.data
 2475               	portModeMeasure:
 2476 01cb 00        		.byte	0
 2477 01cc 06        		.byte	6
 2478 01cd 00        		.byte	0
 2479 01ce 00        		.byte	0
 2480 01cf 00        		.byte	0
 2481 01d0 00        		.byte	0
 2482 01d1 00        		.byte	0
 2483 01d2 00        		.byte	0
 2484               	.global	distanceScale
 2487               	distanceScale:
 2488 01d3 00        		.byte	0
 2489 01d4 00        		.byte	0
 2490 01d5 7A        		.byte	122
 2491 01d6 43        		.byte	67
 2492               	.global	heartBeat
 2495               	heartBeat:
 2496 01d7 00        		.byte	0
 2497 01d8 00        		.byte	0
 2498 01d9 34        		.byte	52
 2499 01da 43        		.byte	67
 2500               	.global	loopCounter
 2501               	.global	loopCounter
 2502               		.section .bss
 2505               	loopCounter:
 2506 0001 0000 0000 		.skip 4,0
 2507               		.comm measuringVoltageFaktor,8,1
 2508               		.comm voltageValueBuffer,7,1
 2509               		.comm measurement,4,1
 2510               		.comm ledLastMeasure,4,1
 2511               		.comm portToRelais,8,1
 2512               		.comm reactionTriggerMode,8,1
 2513               		.comm reactionValues,32,1
 2514               		.comm intervalValues,28,1
 2515               		.comm mea,800,1
 2516               		.comm te,33,1
 2517               		.lcomm x.2076,2
 2518               		.lcomm x.2064,2
 2519               	.global __do_copy_data
 2520               	.global __do_clear_bss
DEFINED SYMBOLS
                            *ABS*:00000000 mBoard.c
     /tmp/ccTWjNI4.s:2      *ABS*:0000003f __SREG__
     /tmp/ccTWjNI4.s:3      *ABS*:0000003e __SP_H__
     /tmp/ccTWjNI4.s:4      *ABS*:0000003d __SP_L__
     /tmp/ccTWjNI4.s:5      *ABS*:00000034 __CCP__
     /tmp/ccTWjNI4.s:6      *ABS*:00000000 __tmp_reg__
     /tmp/ccTWjNI4.s:7      *ABS*:00000001 __zero_reg__
     /tmp/ccTWjNI4.s:11     .text:00000000 sleep
     /tmp/ccTWjNI4.s:39     .text:00000022 initPorts
     /tmp/ccTWjNI4.s:58     .text:00000038 initVoltageMultiplikator
                            *COM*:00000008 measuringVoltageFaktor
                            *COM*:00000008 portToRelais
                            *COM*:00000020 reactionValues
                            *COM*:00000008 reactionTriggerMode
                            *COM*:0000001c intervalValues
     /tmp/ccTWjNI4.s:163    .text:00000188 getTemp
                            *COM*:00000004 measurement
     /tmp/ccTWjNI4.s:188    .text:000001b4 getLightIntensity
     /tmp/ccTWjNI4.s:239    .text:00000218 getNoise
     /tmp/ccTWjNI4.s:263    .text:00000242 getDistance
     /tmp/ccTWjNI4.s:2487   .data:000001d3 distanceScale
     /tmp/ccTWjNI4.s:282    .text:00000268 startMeasure
     /tmp/ccTWjNI4.s:315    .text:000002ae measureAndScale
     /tmp/ccTWjNI4.s:380    .text:0000032a getUnit
     /tmp/ccTWjNI4.s:2475   .data:000001cb portModeMeasure
     /tmp/ccTWjNI4.s:434    .text:00000384 sendReactCAN
     /tmp/ccTWjNI4.s:454    .text:00000386 reactOnMeasure
     /tmp/ccTWjNI4.s:2457   .data:000001c9 serialCommunikation
     /tmp/ccTWjNI4.s:870    .text:000006e2 sendMeasureUART
                            *COM*:00000007 voltageValueBuffer
     /tmp/ccTWjNI4.s:1006   .text:000007e0 generateCANMsg
     /tmp/ccTWjNI4.s:1214   .text:00000932 readUARTConfig
     /tmp/ccTWjNI4.s:2495   .data:000001d7 heartBeat
     /tmp/ccTWjNI4.s:2462   .data:000001ca canCommunikation
     /tmp/ccTWjNI4.s:2469   .bss:00000000 ethCommunikation
     /tmp/ccTWjNI4.s:1469   .text:00000b1a readUARTConfModes
     /tmp/ccTWjNI4.s:1554   .text:00000bba printVreal
     /tmp/ccTWjNI4.s:2517   .bss:00000007 x.2064
     /tmp/ccTWjNI4.s:1657   .text:00000c8c printVmeasure
                             .bss:00000005 x.2076
     /tmp/ccTWjNI4.s:1751   .text:00000d46 reactOnUARTCommand
     /tmp/ccTWjNI4.s:1876   .text:00000e04 reactOnCANCommand
     /tmp/ccTWjNI4.s:2039   .text:00000f12 can_init
     /tmp/ccTWjNI4.s:2059   .text:00000f2a startTimerLed
     /tmp/ccTWjNI4.s:2072   .text:00000f32 checkLedTime
     /tmp/ccTWjNI4.s:2099   .text:00000f36 main
     /tmp/ccTWjNI4.s:2505   .bss:00000001 loopCounter
                            *COM*:00000004 ledLastMeasure
     /tmp/ccTWjNI4.s:2452   .data:000001c8 ledTick
                            *COM*:00000320 mea
                            *COM*:00000021 te

UNDEFINED SYMBOLS
__subsf3
__divsf3
__mulsf3
__fixsfsi
__floatsisf
__floatunsisf
__addsf3
__ltsf2
uart_puts
uart_putc
__gtsf2
dtostrf
uart_getc
itoa
mcp2515_send_extmessage
mcp2515_init
uart_init
__eqsf2
mcp2515_get_extmessage
__do_copy_data
__do_clear_bss
